文件：USER_PROGRAM.C 编译器版本 HGASM 0202 页次1


   1  0000              ; Generated by holtek-gcc v3.17, Mon Feb 12 14:58:58 2018
   2  0000              ; 
   3  0000              ; Configuration:
   4  0000              ;       without long instruction
   5  0000              ;       Single ROM, Multi-RAM
   6  0000              ;       bits_per_rom_unit:16
   7  0000              ;       with mp1
   8  0000              ;       with tbhp, address(0x9)
   9  0000              ;          Use tabrd-const
  10  0000              ;       
  11  0000              ;       
  12  0000              ;       
  13  0000              ; use 'tabrdc' instead of 'tabrd'
  14  0000              ;       
  15  0000              
  16  0000              #pragma translator "holtek-gcc 4.6.4" "3.17" "build 20130711"
  17  0000              ; Rebuild 307
  18  0000              
  19  0000              ir equ [2]
  20  0000              mp equ [3]
  21  0000              sbp equ [1]
  22  0000              acc equ [5]
  23  0000              bp equ [4]
  24  0000              tblp equ [7]
  25  0000              tbhp equ [9]
  26  0000              status equ [10]
  27  0000              c equ [10].0
  28  0000              ac equ [10].1
  29  0000              z equ [10].2
  30  0000              ov equ [10].3
  31  0000              intc equ [11]
  32  0000              
  33  0000              extern ra:byte
  34  0000              extern rb:byte
  35  0000              extern rc:byte
  36  0000              extern rd:byte
  37  0000              extern re:byte
  38  0000              extern rf:byte
  39  0000              extern rg:byte
  40  0000              extern rh:byte
  41  0000              extern _Crom2Prom:near
  42  0000              extern _Crom2PromNext:near
  43  0000              
  44  0000              RAMBANK 0 @HCCINIT, @HCCINIT0
  45  0000              
  46  0000              RAMBANK 0 @BITDATASEC, @BITDATASEC1
  47  0000              @HCCINIT	.section 'data'
  48  0000              @HCCINIT0	.section 'data'
  49  0000              @BITDATASEC	 .section 'data'
  50  0000              @BITDATASEC1	 .section 'data'
  51  0000              
  52  0000              #pragma debug scope 1 1
  53  0000              	extern __DELAY3:near
  54  0000              	extern __DELAYX3:near
  55  0000              	extern __DELAYX6:near
  56  0000              	extern __DELAYY5:near
  57  0000              	extern __DELAYY3:near
  58  0000              	extern _builtin_holtek_delay_2:byte
  59  0000              public _DATA_LIST_UPDATA
文件：USER_PROGRAM.ASM 编译器版本 HGASM 0202 页次2

  60  0000              #pragma debug scope 2 1

  96  0000              #line 96 "C:\Users\my asus\Desktop\Git_project\Touch-Slave\USER_PROGRAM\USER_PROGRAM.C"
  96  0000              _DATA_LIST_UPDATA .section 'code'
  96  0000              _DATA_LIST_UPDATA proc
  96  0000  00              local _DATA_LIST_UPDATA_2 db 1 dup(?)	; 0,1
  99  0001              #line 99 "C:\Users\my asus\Desktop\Git_project\Touch-Slave\USER_PROGRAM\USER_PROGRAM.C"
  99  0000  0F00     R  	mov a,low offset _IC_PAGE_SIZS
  99  0001  0300     R  	add a,_I2C[0]
  99  0002  0083        	mov mp,a
  99  0003  0F00     R  	mov a,high offset _IC_PAGE_SIZS
  99  0004  1F01        	clr sbp
  99  0005  1381        	adcm a,sbp
  99  0006  2000     E  	call _Crom2Prom
  99  0007  0080     R  	mov _I2C[1],a
 101  0008              #line 101 "C:\Users\my asus\Desktop\Git_project\Touch-Slave\USER_PROGRAM\USER_PROGRAM.C"
 101  0008  0700     R  	mov a,_I2C[0]
 101  0009  0080     R  	mov _DATA_LIST_UPDATA_2[0],a
 101  000A  0700     R  	mov a,_DATA_LIST_UPDATA_2[0]
 101  000B  0A00        	sub a,0
 101  000C  3D0A        	sz z
 101  000D  2800     R  	jmp _L11
 101  000E  0A01        	sub a,(1)-(0)
 101  000F  3D0A        	sz z
 101  0010  2800     R  	jmp _L9
 101  0011              #line 101 "C:\Users\my asus\Desktop\Git_project\Touch-Slave\USER_PROGRAM\USER_PROGRAM.C"
 101  0011  0700     R  	mov a,_DATA_LIST_UPDATA_2[0]
 101  0012  0A02        	sub a,2
 101  0013  3D0A        	sz z
 101  0014  2800     R  	jmp _L5
 101  0015  0700     R  	mov a,_DATA_LIST_UPDATA_2[0]
 101  0016  0A03        	sub a,3
 101  0017  390A        	snz z
 101  0018  2800     R  	jmp _L10
 106  0019              #line 106 "C:\Users\my asus\Desktop\Git_project\Touch-Slave\USER_PROGRAM\USER_PROGRAM.C"
 106  0019  0F00     R  	mov a,low offset _MCU_INF
 106  001A  0080     E  	mov rb,a
 106  001B  0F00     R  	mov a,high offset _MCU_INF
 106  001C  0080     E  	mov rc,a
 106  001D  2800     R  	jmp _L4
 106  001E              _L5:
 105  001E              #line 105 "C:\Users\my asus\Desktop\Git_project\Touch-Slave\USER_PROGRAM\USER_PROGRAM.C"
 105  001E  0F00     E  	mov a,low offset _KEY_IO_SEL
 105  001F  0080     E  	mov rb,a
 105  0020  0F00     E  	mov a,high offset _KEY_IO_SEL
 105  0021  0080     E  	mov rc,a
 105  0022  2800     R  	jmp _L4
 105  0023              _L10:
 107  0023              #line 107 "C:\Users\my asus\Desktop\Git_project\Touch-Slave\USER_PROGRAM\USER_PROGRAM.C"
 107  0023  1F00     R  	clr _I2C[1]
 107  0024              _L11:
 107  0024  0F00     E  	mov a,low offset _GLOBE_VARIES
 107  0025  0080     E  	mov rb,a
 107  0026  0F00     E  	mov a,high offset _GLOBE_VARIES
 107  0027  0080     E  	mov rc,a
 107  0028  2800     R  	jmp _L4
 107  0029              _L9:
 104  0029              #line 104 "C:\Users\my asus\Desktop\Git_project\Touch-Slave\USER_PROGRAM\USER_PROGRAM.C"
 104  0029  0F00     E  	mov a,low (offset _GLOBE_VARIES+3)
 104  002A  0080     E  	mov rb,a
文件：USER_PROGRAM.C 编译器版本 HGASM 0202 页次3

 104  002B  0F00     E  	mov a,high (offset _GLOBE_VARIES+3)
 104  002C  0080     E  	mov rc,a
 104  002D              _L4:
 111  002D              #line 111 "C:\Users\my asus\Desktop\Git_project\Touch-Slave\USER_PROGRAM\USER_PROGRAM.C"
 111  002D  1F00     R  	clr _I2C[3]
 111  002E  2800     R  	jmp _L7
 111  002F              _L8:
 113  002F              #line 113 "C:\Users\my asus\Desktop\Git_project\Touch-Slave\USER_PROGRAM\USER_PROGRAM.C"
 113  002F  0F00     R  	mov a,low offset _I2C_Data
 113  0030  0300     R  	add a,_I2C[3]
 113  0031  0083        	mov mp,a
 113  0032  0F00     R  	mov a,high offset _I2C_Data
 113  0033  1F01        	clr sbp
 113  0034  1381        	adcm a,sbp
 113  0035  2000     E  	call _Crom2Prom
 113  0036  0080     E  	mov ra,a
 113  0037  0700     R  	mov a,_I2C[3]
 113  0038  0300     E  	add a,rb
 113  0039  0083        	mov mp,a
 113  003A  1F05        	clr acc
 113  003B  1300     E  	adc a,rc
 113  003C  0081        	mov sbp,a
 113  003D  0701        	mov a,sbp
 113  003E  0084        	mov bp,a
 113  003F  0700     E  	mov a,ra
 113  0040  0082        	mov ir,a
 111  0041              #line 111 "C:\Users\my asus\Desktop\Git_project\Touch-Slave\USER_PROGRAM\USER_PROGRAM.C"
 111  0041  1480     R  	inc _I2C[3]
 111  0042              _L7:
 111  0042  0700     R  	mov a,_I2C[3]
 111  0043  0200     R  	sub a,_I2C[1]
 111  0044  380A        	snz c
 111  0045  2800     R  	jmp _L8
 111  0046  0003        	ret
 111  0047              _DATA_LIST_UPDATA endp
 111  0047              #line 111 "C:\Users\my asus\Desktop\Git_project\Touch-Slave\USER_PROGRAM\USER_PROGRAM.C"
 111  0047              #pragma debug scope 1 1
 111  0047              public _I2C_LIST_INIT
 111  0047              #pragma debug scope 3 1
 120  0047              #line 120 "C:\Users\my asus\Desktop\Git_project\Touch-Slave\USER_PROGRAM\USER_PROGRAM.C"
 120  0000              _I2C_LIST_INIT .section 'code'
 120  0000              _I2C_LIST_INIT proc
 121  0000              #line 121 "C:\Users\my asus\Desktop\Git_project\Touch-Slave\USER_PROGRAM\USER_PROGRAM.C"
 121  0000  1F00     R  	clr _I2C[0]
 122  0001              #line 122 "C:\Users\my asus\Desktop\Git_project\Touch-Slave\USER_PROGRAM\USER_PROGRAM.C"
 122  0001  1F00     R  	clr _I2C[1]
 123  0002              #line 123 "C:\Users\my asus\Desktop\Git_project\Touch-Slave\USER_PROGRAM\USER_PROGRAM.C"
 123  0002  1F00     R  	clr _I2C[3]
 124  0003              #line 124 "C:\Users\my asus\Desktop\Git_project\Touch-Slave\USER_PROGRAM\USER_PROGRAM.C"
 124  0003  1F00     R  	clr _I2C[2]
 125  0004              #line 125 "C:\Users\my asus\Desktop\Git_project\Touch-Slave\USER_PROGRAM\USER_PROGRAM.C"
 125  0004  1F00     R  	clr _I2C[4]
 126  0005              #line 126 "C:\Users\my asus\Desktop\Git_project\Touch-Slave\USER_PROGRAM\USER_PROGRAM.C"
 126  0005  1F00     R  	clr _I2C[5]
 127  0006              #line 127 "C:\Users\my asus\Desktop\Git_project\Touch-Slave\USER_PROGRAM\USER_PROGRAM.C"
 127  0006  3400     R  	clr _FLAG[0].1
 128  0007              #line 128 "C:\Users\my asus\Desktop\Git_project\Touch-Slave\USER_PROGRAM\USER_PROGRAM.C"
 128  0007  3400     R  	clr _FLAG[0].0
 128  0008  0003        	ret
 128  0009              _I2C_LIST_INIT endp
文件：USER_PROGRAM.C 编译器版本 HGASM 0202 页次4

 128  0009              #line 128 "C:\Users\my asus\Desktop\Git_project\Touch-Slave\USER_PROGRAM\USER_PROGRAM.C"
 128  0009              #pragma debug scope 1 1
 128  0009              public _SYS_LIST_INIT
 128  0009              #pragma debug scope 4 1
 133  0009              #line 133 "C:\Users\my asus\Desktop\Git_project\Touch-Slave\USER_PROGRAM\USER_PROGRAM.C"
 133  0000              _SYS_LIST_INIT .section 'code'
 133  0000              _SYS_LIST_INIT proc
 134  0000              #line 134 "C:\Users\my asus\Desktop\Git_project\Touch-Slave\USER_PROGRAM\USER_PROGRAM.C"
 134  0000  0F0F        	mov a,15
 134  0001  0080     R  	mov _MCU_INF[0],a
 135  0002              #line 135 "C:\Users\my asus\Desktop\Git_project\Touch-Slave\USER_PROGRAM\USER_PROGRAM.C"
 135  0002  0F4E        	mov a,78
 135  0003  0080     R  	mov _MCU_INF[1],a
 137  0004              #line 137 "C:\Users\my asus\Desktop\Git_project\Touch-Slave\USER_PROGRAM\USER_PROGRAM.C"
 137  0004  0F0F        	mov a,15
 137  0005  0080     R  	mov _SYS_INF[0],a
 138  0006              #line 138 "C:\Users\my asus\Desktop\Git_project\Touch-Slave\USER_PROGRAM\USER_PROGRAM.C"
 138  0006  0F1C        	mov a,28
 138  0007  0080     R  	mov _SYS_INF[1],a
 139  0008              #line 139 "C:\Users\my asus\Desktop\Git_project\Touch-Slave\USER_PROGRAM\USER_PROGRAM.C"
 139  0008  3000     R  	set _FLAG[0].0
 139  0009  0003        	ret
 139  000A              _SYS_LIST_INIT endp
 139  000A              #line 139 "C:\Users\my asus\Desktop\Git_project\Touch-Slave\USER_PROGRAM\USER_PROGRAM.C"
 139  000A              #pragma debug scope 1 1
 139  000A              ___pawu equ [23]
 139  000A              ___papu equ [22]
 139  000A              ___pa equ [20]
 139  000A              ___pac equ [21]
 139  000A              ___simc0 equ [36]
 139  000A              ___sima equ [39]
 139  000A              ___i2ctoc equ [35]
 139  000A              ___intc1 equ [15]
 139  000A              ___intc0 equ [14]
 139  000A              public _USER_PROGRAM_INITIAL
 139  000A              #pragma debug scope 5 1
 144  000A              #line 144 "C:\Users\my asus\Desktop\Git_project\Touch-Slave\USER_PROGRAM\USER_PROGRAM.C"
 144  0000              _USER_PROGRAM_INITIAL .section 'code'
 144  0000              _USER_PROGRAM_INITIAL proc
 147  0000              #line 147 "C:\Users\my asus\Desktop\Git_project\Touch-Slave\USER_PROGRAM\USER_PROGRAM.C"
 147  0000  1F17        	clr [23]
 148  0001              #line 148 "C:\Users\my asus\Desktop\Git_project\Touch-Slave\USER_PROGRAM\USER_PROGRAM.C"
 148  0001  1F16        	clr [22]
 150  0002              #line 150 "C:\Users\my asus\Desktop\Git_project\Touch-Slave\USER_PROGRAM\USER_PROGRAM.C"
 150  0002  1F14        	clr [20]
 151  0003              #line 151 "C:\Users\my asus\Desktop\Git_project\Touch-Slave\USER_PROGRAM\USER_PROGRAM.C"
 151  0003  1F95        	set [21]
 153  0004              #line 153 "C:\Users\my asus\Desktop\Git_project\Touch-Slave\USER_PROGRAM\USER_PROGRAM.C"
 153  0004  3094        	set [20].1
 154  0005              #line 154 "C:\Users\my asus\Desktop\Git_project\Touch-Slave\USER_PROGRAM\USER_PROGRAM.C"
 154  0005  3495        	clr [21].1
 167  0006              #line 167 "C:\Users\my asus\Desktop\Git_project\Touch-Slave\USER_PROGRAM\USER_PROGRAM.C"
 167  0006  0FC2        	mov a,194
 167  0007  00A4        	mov [36],a
 168  0008              #line 168 "C:\Users\my asus\Desktop\Git_project\Touch-Slave\USER_PROGRAM\USER_PROGRAM.C"
 168  0008  0F28        	mov a,40
 168  0009  00A7        	mov [39],a
 171  000A              #line 171 "C:\Users\my asus\Desktop\Git_project\Touch-Slave\USER_PROGRAM\USER_PROGRAM.C"
 171  000A  0FBF        	mov a,191
 171  000B  00A3        	mov [35],a
文件：USER_PROGRAM.C 编译器版本 HGASM 0202 页次5

 172  000C              #line 172 "C:\Users\my asus\Desktop\Git_project\Touch-Slave\USER_PROGRAM\USER_PROGRAM.C"
 172  000C  360F        	clr [15].4
 173  000D              #line 173 "C:\Users\my asus\Desktop\Git_project\Touch-Slave\USER_PROGRAM\USER_PROGRAM.C"
 173  000D  300F        	set [15].0
 175  000E              #line 175 "C:\Users\my asus\Desktop\Git_project\Touch-Slave\USER_PROGRAM\USER_PROGRAM.C"
 175  000E  2000     R  	call _SYS_LIST_INIT
 177  000F              #line 177 "C:\Users\my asus\Desktop\Git_project\Touch-Slave\USER_PROGRAM\USER_PROGRAM.C"
 177  000F  300E        	set [14].0
 177  0010  0003        	ret
 177  0011              _USER_PROGRAM_INITIAL endp
 177  0011              #line 177 "C:\Users\my asus\Desktop\Git_project\Touch-Slave\USER_PROGRAM\USER_PROGRAM.C"
 177  0011              #pragma debug scope 1 1
 177  0011              ___wdtc equ [26]
 177  0011              public _USER_PROGRAM
 177  0011              #pragma debug scope 6 1
 184  0011              #line 184 "C:\Users\my asus\Desktop\Git_project\Touch-Slave\USER_PROGRAM\USER_PROGRAM.C"
 184  0000              _USER_PROGRAM .section 'code'
 184  0000              _USER_PROGRAM proc
 187  0000              #line 187 "C:\Users\my asus\Desktop\Git_project\Touch-Slave\USER_PROGRAM\USER_PROGRAM.C"
 187  0000  2000     E  	call _GET_KEY_BITMAP
 192  0001              #line 192 "C:\Users\my asus\Desktop\Git_project\Touch-Slave\USER_PROGRAM\USER_PROGRAM.C"
 192  0001  0700     E  	mov a,_KEY_IO_SEL[0]
 192  0002  0600     E  	and a,_KEY_DATA[0]
 192  0003  0080     E  	mov rb,a
 192  0004  0700     E  	mov a,rb
 192  0005  0080     E  	mov _KEY_DATA[0],a
 193  0006              #line 193 "C:\Users\my asus\Desktop\Git_project\Touch-Slave\USER_PROGRAM\USER_PROGRAM.C"
 193  0006  0700     E  	mov a,_KEY_IO_SEL[1]
 193  0007  0600     E  	and a,_KEY_DATA[1]
 193  0008  0080     E  	mov ra,a
 193  0009  0700     E  	mov a,ra
 193  000A  0080     E  	mov _KEY_DATA[1],a
 195  000B              #line 195 "C:\Users\my asus\Desktop\Git_project\Touch-Slave\USER_PROGRAM\USER_PROGRAM.C"
 195  000B  1080     E  	sz rb
 195  000C  2800     R  	jmp _L17
 195  000D              #line 195 "C:\Users\my asus\Desktop\Git_project\Touch-Slave\USER_PROGRAM\USER_PROGRAM.C"
 195  000D  1080     E  	sz ra
 195  000E  2800     R  	jmp _LI1
 195  000F  2800     R  	jmp _L18
 195  0010              _LI1:
 195  0010              _L17:
 197  0010              #line 197 "C:\Users\my asus\Desktop\Git_project\Touch-Slave\USER_PROGRAM\USER_PROGRAM.C"
 197  0010  3494        	clr [20].1
 198  0011              #line 198 "C:\Users\my asus\Desktop\Git_project\Touch-Slave\USER_PROGRAM\USER_PROGRAM.C"
 198  0011  0F7F        	mov a,127
 198  0012  0080     E  	mov _STANDBY_TIME[0],a
 198  0013  2800     R  	jmp _L19
 198  0014              _L18:
 202  0014              #line 202 "C:\Users\my asus\Desktop\Git_project\Touch-Slave\USER_PROGRAM\USER_PROGRAM.C"
 202  0014  3094        	set [20].1
 204  0015              #line 204 "C:\Users\my asus\Desktop\Git_project\Touch-Slave\USER_PROGRAM\USER_PROGRAM.C"
 204  0015  0700     R  	mov a,_MCU_INF[1]
 204  0016  0200     E  	sub a,_STANDBY_TIME[0]
 204  0017  380A        	snz c
 204  0018  2800     R  	jmp _L19
 206  0019              #line 206 "C:\Users\my asus\Desktop\Git_project\Touch-Slave\USER_PROGRAM\USER_PROGRAM.C"
 206  0019  1F00     E  	clr _STANDBY_TIME[0]
 206  001A              _L19:
 239  001A              #line 239 "C:\Users\my asus\Desktop\Git_project\Touch-Slave\USER_PROGRAM\USER_PROGRAM.C"
 239  001A  3800     R  	snz _FLAG[0].0
文件：USER_PROGRAM.C 编译器版本 HGASM 0202 页次6

 239  001B  2800     R  	jmp _L20
 241  001C              #line 241 "C:\Users\my asus\Desktop\Git_project\Touch-Slave\USER_PROGRAM\USER_PROGRAM.C"
 241  001C  2000     R  	call _I2C_LIST_INIT
 241  001D              _L20:
 244  001D              #line 244 "C:\Users\my asus\Desktop\Git_project\Touch-Slave\USER_PROGRAM\USER_PROGRAM.C"
 244  001D  3800     R  	snz _FLAG[0].1
 244  001E  2800     R  	jmp _L16
 247  001F              #line 247 "C:\Users\my asus\Desktop\Git_project\Touch-Slave\USER_PROGRAM\USER_PROGRAM.C"
 247  001F  1100     R  	swapa _I2C[0]
 247  0020  0E0F        	and a,0fh
 247  0021  0080     R  	mov _I2C[0],a
 248  0022              #line 248 "C:\Users\my asus\Desktop\Git_project\Touch-Slave\USER_PROGRAM\USER_PROGRAM.C"
 248  0022  0FF6        	mov a,246
 248  0023  0380     R  	addm a,_I2C[0]
 250  0024              #line 250 "C:\Users\my asus\Desktop\Git_project\Touch-Slave\USER_PROGRAM\USER_PROGRAM.C"
 250  0024  0FFE        	mov a,254
 250  0025  0380     R  	addm a,_I2C[3]
 253  0026              #line 253 "C:\Users\my asus\Desktop\Git_project\Touch-Slave\USER_PROGRAM\USER_PROGRAM.C"
 253  0026  0F03        	mov a,3
 253  0027  0200     R  	sub a,_I2C[0]
 253  0028  380A        	snz c
 253  0029  2800     R  	jmp _L22
 253  002A  0F00     R  	mov a,low offset _IC_PAGE_SIZS
 253  002B  0300     R  	add a,_I2C[0]
 253  002C  0083        	mov mp,a
 253  002D  0F00     R  	mov a,high offset _IC_PAGE_SIZS
 253  002E  1F01        	clr sbp
 253  002F  1381        	adcm a,sbp
 253  0030  2000     E  	call _Crom2Prom
 253  0031  0080     E  	mov ra,a
 253  0032  0700     R  	mov a,_I2C[3]
 253  0033  0200     E  	sub a,ra
 253  0034  390A        	snz z
 253  0035  2800     R  	jmp _L22
 255  0036              #line 255 "C:\Users\my asus\Desktop\Git_project\Touch-Slave\USER_PROGRAM\USER_PROGRAM.C"
 255  0036  0100     R  	cpla _I2C[5]
 255  0037  0080     R  	mov _I2C[5],a
 257  0038              #line 257 "C:\Users\my asus\Desktop\Git_project\Touch-Slave\USER_PROGRAM\USER_PROGRAM.C"
 257  0038  0700     R  	mov a,_I2C[4]
 257  0039  0200     R  	sub a,_I2C[5]
 257  003A  390A        	snz z
 257  003B  2800     R  	jmp _L22
 259  003C              #line 259 "C:\Users\my asus\Desktop\Git_project\Touch-Slave\USER_PROGRAM\USER_PROGRAM.C"
 259  003C  0F01        	mov a,1
 259  003D  0080     R  	mov _SYS_INF[0],a
 261  003E              #line 261 "C:\Users\my asus\Desktop\Git_project\Touch-Slave\USER_PROGRAM\USER_PROGRAM.C"
 261  003E  2000     R  	call _DATA_LIST_UPDATA
 264  003F              #line 264 "C:\Users\my asus\Desktop\Git_project\Touch-Slave\USER_PROGRAM\USER_PROGRAM.C"
 264  003F  0700     R  	mov a,_MCU_INF[0]
 264  0040  0A0A        	sub a,10
 264  0041  390A        	snz z
 264  0042  2800     R  	jmp _L24
 266  0043              #line 266 "C:\Users\my asus\Desktop\Git_project\Touch-Slave\USER_PROGRAM\USER_PROGRAM.C"
 266  0043  3494        	clr [20].1
 267  0044              #line 267 "C:\Users\my asus\Desktop\Git_project\Touch-Slave\USER_PROGRAM\USER_PROGRAM.C"
 267  0044  1F9A        	set [26]
 267  0045  2800     R  	jmp _L25
 267  0046              _L24:
 271  0046              #line 271 "C:\Users\my asus\Desktop\Git_project\Touch-Slave\USER_PROGRAM\USER_PROGRAM.C"
 271  0046  0F0F        	mov a,15
文件：USER_PROGRAM.C 编译器版本 HGASM 0202 页次7

 271  0047  0080     R  	mov _MCU_INF[0],a
 271  0048  2800     R  	jmp _L25
 271  0049              _L22:
 279  0049              #line 279 "C:\Users\my asus\Desktop\Git_project\Touch-Slave\USER_PROGRAM\USER_PROGRAM.C"
 279  0049  1F00     R  	clr _SYS_INF[0]
 279  004A              _L25:
 281  004A              #line 281 "C:\Users\my asus\Desktop\Git_project\Touch-Slave\USER_PROGRAM\USER_PROGRAM.C"
 281  004A  3400     R  	clr _FLAG[0].1
 281  004B              _L16:
 281  004B  0003        	ret
 281  004C              _USER_PROGRAM endp
 281  004C              #line 281 "C:\Users\my asus\Desktop\Git_project\Touch-Slave\USER_PROGRAM\USER_PROGRAM.C"
 281  004C              #pragma debug scope 1 1
 281  004C              ___simc1 equ [37]
 281  004C              ___simd equ [38]
 281  004C              ___acc equ [5]
 281  004C              public _IIC_ISR
 281  004C              #pragma debug scope 7 1
 290  004C              #line 290 "C:\Users\my asus\Desktop\Git_project\Touch-Slave\USER_PROGRAM\USER_PROGRAM.C"
 290  0000              @IIC_ISR_code .section at 16 'code'
 290  0000  0080     E  	mov r1,a
 290  0001  0704        	mov a,bp
 290  0002  0080     E  	mov r2,a
 290  0003  2800     R  	jmp _IIC_ISR
 290  0004              #pragma debug scope 1 1
 290  0004              @dummy16 endp
 290  0004              #pragma debug scope 8 1
 290  0000              _IIC_ISR .section 'code'
 290  0000              _IIC_ISR proc
 290  0000  0002[       local _IIC_ISR_2 db 2 dup(?)
            00
            ]
 290  0000  070A        	mov a,status
 290  0001  0080     E  	mov r3,a
 290  0002  0703        	mov a,mp
 290  0003  0080     E  	mov r4,a
 290  0004  0701        	mov a,sbp
 290  0005  0080     E  	mov r5,a
 290  0006              #pragma debug variable 8 8 _IIC_ISR_2+0 "data"
 293  0006              #line 293 "C:\Users\my asus\Desktop\Git_project\Touch-Slave\USER_PROGRAM\USER_PROGRAM.C"
 293  0006  360F        	clr [15].4
 294  0007              #line 294 "C:\Users\my asus\Desktop\Git_project\Touch-Slave\USER_PROGRAM\USER_PROGRAM.C"
 294  0007  3B23        	snz [35].6
 294  0008  2800     R  	jmp _L33
 296  0009              #line 296 "C:\Users\my asus\Desktop\Git_project\Touch-Slave\USER_PROGRAM\USER_PROGRAM.C"
 296  0009  33A3        	set [35].7
 297  000A              #line 297 "C:\Users\my asus\Desktop\Git_project\Touch-Slave\USER_PROGRAM\USER_PROGRAM.C"
 297  000A  3723        	clr [35].6
 298  000B              #line 298 "C:\Users\my asus\Desktop\Git_project\Touch-Slave\USER_PROGRAM\USER_PROGRAM.C"
 298  000B  3000     R  	set _FLAG[0].0
 298  000C  2800     R  	jmp _L32
 298  000D              _L33:
 302  000D              #line 302 "C:\Users\my asus\Desktop\Git_project\Touch-Slave\USER_PROGRAM\USER_PROGRAM.C"
 302  000D  3B25        	snz [37].6
 302  000E  2800     R  	jmp _L35
 306  000F              #line 306 "C:\Users\my asus\Desktop\Git_project\Touch-Slave\USER_PROGRAM\USER_PROGRAM.C"
 306  000F  3925        	snz [37].2
 306  0010  2800     R  	jmp _L36
 309  0011              #line 309 "C:\Users\my asus\Desktop\Git_project\Touch-Slave\USER_PROGRAM\USER_PROGRAM.C"
 309  0011  1080     R  	sz _I2C[0]
文件：USER_PROGRAM.C 编译器版本 HGASM 0202 页次8

 309  0012  2800     R  	jmp _L37
 311  0013              #line 311 "C:\Users\my asus\Desktop\Git_project\Touch-Slave\USER_PROGRAM\USER_PROGRAM.C"
 311  0013  0F03        	mov a,3
 311  0014  0080     R  	mov _I2C[1],a
 312  0015              #line 312 "C:\Users\my asus\Desktop\Git_project\Touch-Slave\USER_PROGRAM\USER_PROGRAM.C"
 312  0015  0FA0        	mov a,160
 312  0016  0080     R  	mov _I2C[2],a
 313  0017              #line 313 "C:\Users\my asus\Desktop\Git_project\Touch-Slave\USER_PROGRAM\USER_PROGRAM.C"
 313  0017  1F00     R  	clr _I2C[5]
 313  0018              _L37:
 317  0018              #line 317 "C:\Users\my asus\Desktop\Git_project\Touch-Slave\USER_PROGRAM\USER_PROGRAM.C"
 317  0018  0700     R  	mov a,_I2C[2]
 317  0019  0080     R  	mov _IIC_ISR_2[1],a
 317  001A  0700     R  	mov a,_IIC_ISR_2[1]
 317  001B  0AA0        	sub a,160
 317  001C  3D0A        	sz z
 317  001D  2800     R  	jmp _L39
 317  001E  0A10        	sub a,(176)-(160)
 317  001F  3D0A        	sz z
 317  0020  2800     R  	jmp _L40
 317  0021  0700     R  	mov a,_IIC_ISR_2[1]
 317  0022  0AC0        	sub a,192
 317  0023  3D0A        	sz z
 317  0024  2800     R  	jmp _L41
 317  0025  0A10        	sub a,(208)-(192)
 317  0026  3D0A        	sz z
 317  0027  2800     R  	jmp _L42
 317  0028  0700     R  	mov a,_IIC_ISR_2[1]
 317  0029  0AE0        	sub a,224
 317  002A  3D0A        	sz z
 317  002B  2800     R  	jmp _L43
 317  002C  0700     R  	mov a,_IIC_ISR_2[1]
 317  002D  0AF0        	sub a,240
 317  002E  390A        	snz z
 317  002F  2800     R  	jmp _L79
 324  0030              #line 324 "C:\Users\my asus\Desktop\Git_project\Touch-Slave\USER_PROGRAM\USER_PROGRAM.C"
 324  0030  0700     R  	mov a,_SYS_INF[0]
 324  0031  0080     R  	mov _IIC_ISR_2[0],a
 324  0032  0F0F        	mov a,15
 324  0033  0080     R  	mov _SYS_INF[0],a
 324  0034  2800     R  	jmp _L45
 324  0035              _L39:
 319  0035              #line 319 "C:\Users\my asus\Desktop\Git_project\Touch-Slave\USER_PROGRAM\USER_PROGRAM.C"
 319  0035  0700     E  	mov a,_GLOBE_VARIES[0]
 319  0036  0080     R  	mov _IIC_ISR_2[0],a
 319  0037  2800     R  	jmp _L45
 319  0038              _L40:
 320  0038              #line 320 "C:\Users\my asus\Desktop\Git_project\Touch-Slave\USER_PROGRAM\USER_PROGRAM.C"
 320  0038  0700     E  	mov a,_GLOBE_VARIES[3]
 320  0039  0080     R  	mov _IIC_ISR_2[0],a
 320  003A  2800     R  	jmp _L45
 320  003B              _L41:
 321  003B              #line 321 "C:\Users\my asus\Desktop\Git_project\Touch-Slave\USER_PROGRAM\USER_PROGRAM.C"
 321  003B  0700     E  	mov a,_KEY_IO_SEL[0]
 321  003C  0080     R  	mov _IIC_ISR_2[0],a
 321  003D  2800     R  	jmp _L45
 321  003E              _L42:
 322  003E              #line 322 "C:\Users\my asus\Desktop\Git_project\Touch-Slave\USER_PROGRAM\USER_PROGRAM.C"
 322  003E  0700     R  	mov a,_MCU_INF[0]
 322  003F  0080     R  	mov _IIC_ISR_2[0],a
文件：USER_PROGRAM.C 编译器版本 HGASM 0202 页次9

 322  0040  2800     R  	jmp _L45
 322  0041              _L43:
 323  0041              #line 323 "C:\Users\my asus\Desktop\Git_project\Touch-Slave\USER_PROGRAM\USER_PROGRAM.C"
 323  0041  0700     E  	mov a,_KEY_DATA[0]
 323  0042  0080     R  	mov _IIC_ISR_2[0],a
 323  0043  2800     R  	jmp _L45
 323  0044              _L79:
 325  0044              #line 325 "C:\Users\my asus\Desktop\Git_project\Touch-Slave\USER_PROGRAM\USER_PROGRAM.C"
 325  0044  0FAA        	mov a,170
 325  0045  0080     R  	mov _IIC_ISR_2[0],a
 325  0046              _L45:
 327  0046              #line 327 "C:\Users\my asus\Desktop\Git_project\Touch-Slave\USER_PROGRAM\USER_PROGRAM.C"
 327  0046  3225        	set [37].4
 328  0047              #line 328 "C:\Users\my asus\Desktop\Git_project\Touch-Slave\USER_PROGRAM\USER_PROGRAM.C"
 328  0047  0700     R  	mov a,_IIC_ISR_2[0]
 328  0048  00A6        	mov [38],a
 330  0049              #line 330 "C:\Users\my asus\Desktop\Git_project\Touch-Slave\USER_PROGRAM\USER_PROGRAM.C"
 330  0049  0700     R  	mov a,_IIC_ISR_2[0]
 330  004A  0380     R  	addm a,_I2C[5]
 332  004B              #line 332 "C:\Users\my asus\Desktop\Git_project\Touch-Slave\USER_PROGRAM\USER_PROGRAM.C"
 332  004B  0700     R  	mov a,_I2C[2]
 332  004C  0380     R  	addm a,_I2C[1]
 332  004D  2800     R  	jmp _L85
 332  004E              _L36:
 340  004E              #line 340 "C:\Users\my asus\Desktop\Git_project\Touch-Slave\USER_PROGRAM\USER_PROGRAM.C"
 340  004E  3625        	clr [37].4
 341  004F              #line 341 "C:\Users\my asus\Desktop\Git_project\Touch-Slave\USER_PROGRAM\USER_PROGRAM.C"
 341  004F  35A5        	clr [37].3
 342  0050              #line 342 "C:\Users\my asus\Desktop\Git_project\Touch-Slave\USER_PROGRAM\USER_PROGRAM.C"
 342  0050  0726        	mov a,[38]
 342  0051  0085        	mov [5],a
 344  0052              #line 344 "C:\Users\my asus\Desktop\Git_project\Touch-Slave\USER_PROGRAM\USER_PROGRAM.C"
 344  0052  1F00     R  	clr _I2C[3]
 345  0053              #line 345 "C:\Users\my asus\Desktop\Git_project\Touch-Slave\USER_PROGRAM\USER_PROGRAM.C"
 345  0053  1F00     R  	clr _I2C[2]
 346  0054              #line 346 "C:\Users\my asus\Desktop\Git_project\Touch-Slave\USER_PROGRAM\USER_PROGRAM.C"
 346  0054  1F00     R  	clr _I2C[1]
 347  0055              #line 347 "C:\Users\my asus\Desktop\Git_project\Touch-Slave\USER_PROGRAM\USER_PROGRAM.C"
 347  0055  3400     R  	clr _FLAG[0].1
 347  0056  2800     R  	jmp _L32
 347  0057              _L35:
 353  0057              #line 353 "C:\Users\my asus\Desktop\Git_project\Touch-Slave\USER_PROGRAM\USER_PROGRAM.C"
 353  0057  3A25        	snz [37].4
 353  0058  2800     R  	jmp _L47
 355  0059              #line 355 "C:\Users\my asus\Desktop\Git_project\Touch-Slave\USER_PROGRAM\USER_PROGRAM.C"
 355  0059  3825        	snz [37].0
 355  005A  2800     R  	jmp _L48
 357  005B              #line 357 "C:\Users\my asus\Desktop\Git_project\Touch-Slave\USER_PROGRAM\USER_PROGRAM.C"
 357  005B  3625        	clr [37].4
 358  005C              #line 358 "C:\Users\my asus\Desktop\Git_project\Touch-Slave\USER_PROGRAM\USER_PROGRAM.C"
 358  005C  35A5        	clr [37].3
 359  005D              #line 359 "C:\Users\my asus\Desktop\Git_project\Touch-Slave\USER_PROGRAM\USER_PROGRAM.C"
 359  005D  0726        	mov a,[38]
 359  005E  0085        	mov [5],a
 361  005F              #line 361 "C:\Users\my asus\Desktop\Git_project\Touch-Slave\USER_PROGRAM\USER_PROGRAM.C"
 361  005F  1F00     R  	clr _I2C[0]
 362  0060              #line 362 "C:\Users\my asus\Desktop\Git_project\Touch-Slave\USER_PROGRAM\USER_PROGRAM.C"
 362  0060  1F00     R  	clr _I2C[1]
 363  0061              #line 363 "C:\Users\my asus\Desktop\Git_project\Touch-Slave\USER_PROGRAM\USER_PROGRAM.C"
 363  0061  1F00     R  	clr _I2C[2]
文件：USER_PROGRAM.C 编译器版本 HGASM 0202 页次10

 363  0062  2800     R  	jmp _L32
 363  0063              _L48:
 368  0063              #line 368 "C:\Users\my asus\Desktop\Git_project\Touch-Slave\USER_PROGRAM\USER_PROGRAM.C"
 368  0063  0700     R  	mov a,_I2C[2]
 368  0064  0080     R  	mov _IIC_ISR_2[1],a
 368  0065  0700     R  	mov a,_IIC_ISR_2[1]
 368  0066  0AA1        	sub a,161
 368  0067  3D0A        	sz z
 368  0068  2800     R  	jmp _L50
 368  0069  0A01        	sub a,(162)-(161)
 368  006A  3D0A        	sz z
 368  006B  2800     R  	jmp _L51
 368  006C  0700     R  	mov a,_IIC_ISR_2[1]
 368  006D  0AB1        	sub a,177
 368  006E  3D0A        	sz z
 368  006F  2800     R  	jmp _L52
 368  0070  0A01        	sub a,(178)-(177)
 368  0071  3D0A        	sz z
 368  0072  2800     R  	jmp _L53
 368  0073  0700     R  	mov a,_IIC_ISR_2[1]
 368  0074  0AB3        	sub a,179
 368  0075  3D0A        	sz z
 368  0076  2800     R  	jmp _L54
 368  0077  0A01        	sub a,(180)-(179)
 368  0078  3D0A        	sz z
 368  0079  2800     R  	jmp _L55
 368  007A  0700     R  	mov a,_IIC_ISR_2[1]
 368  007B  0AB5        	sub a,181
 368  007C  3D0A        	sz z
 368  007D  2800     R  	jmp _L56
 368  007E  0A01        	sub a,(182)-(181)
 368  007F  3D0A        	sz z
 368  0080  2800     R  	jmp _L57
 368  0081  0700     R  	mov a,_IIC_ISR_2[1]
 368  0082  0AB7        	sub a,183
 368  0083  3D0A        	sz z
 368  0084  2800     R  	jmp _L58
 368  0085  0A01        	sub a,(184)-(183)
 368  0086  3D0A        	sz z
 368  0087  2800     R  	jmp _L59
 368  0088  0700     R  	mov a,_IIC_ISR_2[1]
 368  0089  0AB9        	sub a,185
 368  008A  3D0A        	sz z
 368  008B  2800     R  	jmp _L60
 368  008C  0A01        	sub a,(186)-(185)
 368  008D  3D0A        	sz z
 368  008E  2800     R  	jmp _L61
 368  008F  0700     R  	mov a,_IIC_ISR_2[1]
 368  0090  0ABB        	sub a,187
 368  0091  3D0A        	sz z
 368  0092  2800     R  	jmp _L62
 368  0093  0A06        	sub a,(193)-(187)
 368  0094  3D0A        	sz z
 368  0095  2800     R  	jmp _L63
 368  0096  0700     R  	mov a,_IIC_ISR_2[1]
 368  0097  0AD1        	sub a,209
 368  0098  3D0A        	sz z
 368  0099  2800     R  	jmp _L64
 368  009A  0A10        	sub a,(225)-(209)
 368  009B  3D0A        	sz z
文件：USER_PROGRAM.C 编译器版本 HGASM 0202 页次11

 368  009C  2800     R  	jmp _L65
 368  009D  0700     R  	mov a,_IIC_ISR_2[1]
 368  009E  0AF1        	sub a,241
 368  009F  3D0A        	sz z
 368  00A0  2800     R  	jmp _L66
 368  00A1  1600     R  	siza _IIC_ISR_2[1]
 368  00A2  2800     R  	jmp _L80
 415  00A3              #line 415 "C:\Users\my asus\Desktop\Git_project\Touch-Slave\USER_PROGRAM\USER_PROGRAM.C"
 415  00A3  0100     R  	cpla _I2C[5]
 415  00A4  0080     R  	mov _IIC_ISR_2[0],a
 415  00A5  2800     R  	jmp _L68
 415  00A6              _L50:
 372  00A6              #line 372 "C:\Users\my asus\Desktop\Git_project\Touch-Slave\USER_PROGRAM\USER_PROGRAM.C"
 372  00A6  0700     E  	mov a,_GLOBE_VARIES[1]
 372  00A7  0080     R  	mov _IIC_ISR_2[0],a
 372  00A8  2800     R  	jmp _L68
 372  00A9              _L51:
 373  00A9              #line 373 "C:\Users\my asus\Desktop\Git_project\Touch-Slave\USER_PROGRAM\USER_PROGRAM.C"
 373  00A9  0700     E  	mov a,_GLOBE_VARIES[2]
 373  00AA  0080     R  	mov _IIC_ISR_2[0],a
 373  00AB  2800     R  	jmp _L68
 373  00AC              _L52:
 376  00AC              #line 376 "C:\Users\my asus\Desktop\Git_project\Touch-Slave\USER_PROGRAM\USER_PROGRAM.C"
 376  00AC  0700     E  	mov a,_GLOBE_VARIES[4]
 376  00AD  0080     R  	mov _IIC_ISR_2[0],a
 376  00AE  2800     R  	jmp _L68
 376  00AF              _L53:
 377  00AF              #line 377 "C:\Users\my asus\Desktop\Git_project\Touch-Slave\USER_PROGRAM\USER_PROGRAM.C"
 377  00AF  0700     E  	mov a,_GLOBE_VARIES[5]
 377  00B0  0080     R  	mov _IIC_ISR_2[0],a
 377  00B1  2800     R  	jmp _L68
 377  00B2              _L54:
 378  00B2              #line 378 "C:\Users\my asus\Desktop\Git_project\Touch-Slave\USER_PROGRAM\USER_PROGRAM.C"
 378  00B2  0700     E  	mov a,_GLOBE_VARIES[6]
 378  00B3  0080     R  	mov _IIC_ISR_2[0],a
 378  00B4  2800     R  	jmp _L68
 378  00B5              _L55:
 379  00B5              #line 379 "C:\Users\my asus\Desktop\Git_project\Touch-Slave\USER_PROGRAM\USER_PROGRAM.C"
 379  00B5  0700     E  	mov a,_GLOBE_VARIES[7]
 379  00B6  0080     R  	mov _IIC_ISR_2[0],a
 379  00B7  2800     R  	jmp _L68
 379  00B8              _L56:
 380  00B8              #line 380 "C:\Users\my asus\Desktop\Git_project\Touch-Slave\USER_PROGRAM\USER_PROGRAM.C"
 380  00B8  0700     E  	mov a,_GLOBE_VARIES[8]
 380  00B9  0080     R  	mov _IIC_ISR_2[0],a
 380  00BA  2800     R  	jmp _L68
 380  00BB              _L57:
 381  00BB              #line 381 "C:\Users\my asus\Desktop\Git_project\Touch-Slave\USER_PROGRAM\USER_PROGRAM.C"
 381  00BB  0700     E  	mov a,_GLOBE_VARIES[9]
 381  00BC  0080     R  	mov _IIC_ISR_2[0],a
 381  00BD  2800     R  	jmp _L68
 381  00BE              _L58:
 382  00BE              #line 382 "C:\Users\my asus\Desktop\Git_project\Touch-Slave\USER_PROGRAM\USER_PROGRAM.C"
 382  00BE  0700     E  	mov a,_GLOBE_VARIES[10]
 382  00BF  0080     R  	mov _IIC_ISR_2[0],a
 382  00C0  2800     R  	jmp _L68
 382  00C1              _L59:
 387  00C1              #line 387 "C:\Users\my asus\Desktop\Git_project\Touch-Slave\USER_PROGRAM\USER_PROGRAM.C"
 387  00C1  0700     E  	mov a,_GLOBE_VARIES[11]
 387  00C2  0080     R  	mov _IIC_ISR_2[0],a
文件：USER_PROGRAM.C 编译器版本 HGASM 0202 页次12

 387  00C3  2800     R  	jmp _L68
 387  00C4              _L60:
 388  00C4              #line 388 "C:\Users\my asus\Desktop\Git_project\Touch-Slave\USER_PROGRAM\USER_PROGRAM.C"
 388  00C4  0700     E  	mov a,_GLOBE_VARIES[12]
 388  00C5  0080     R  	mov _IIC_ISR_2[0],a
 388  00C6  2800     R  	jmp _L68
 388  00C7              _L61:
 389  00C7              #line 389 "C:\Users\my asus\Desktop\Git_project\Touch-Slave\USER_PROGRAM\USER_PROGRAM.C"
 389  00C7  0700     E  	mov a,_GLOBE_VARIES[13]
 389  00C8  0080     R  	mov _IIC_ISR_2[0],a
 389  00C9  2800     R  	jmp _L68
 389  00CA              _L62:
 390  00CA              #line 390 "C:\Users\my asus\Desktop\Git_project\Touch-Slave\USER_PROGRAM\USER_PROGRAM.C"
 390  00CA  0700     E  	mov a,_GLOBE_VARIES[14]
 390  00CB  0080     R  	mov _IIC_ISR_2[0],a
 390  00CC  2800     R  	jmp _L68
 390  00CD              _L63:
 400  00CD              #line 400 "C:\Users\my asus\Desktop\Git_project\Touch-Slave\USER_PROGRAM\USER_PROGRAM.C"
 400  00CD  0700     E  	mov a,_KEY_IO_SEL[1]
 400  00CE  0080     R  	mov _IIC_ISR_2[0],a
 400  00CF  2800     R  	jmp _L68
 400  00D0              _L64:
 403  00D0              #line 403 "C:\Users\my asus\Desktop\Git_project\Touch-Slave\USER_PROGRAM\USER_PROGRAM.C"
 403  00D0  0700     R  	mov a,_MCU_INF[1]
 403  00D1  0080     R  	mov _IIC_ISR_2[0],a
 403  00D2  2800     R  	jmp _L68
 403  00D3              _L65:
 406  00D3              #line 406 "C:\Users\my asus\Desktop\Git_project\Touch-Slave\USER_PROGRAM\USER_PROGRAM.C"
 406  00D3  0700     E  	mov a,_KEY_DATA[1]
 406  00D4  0080     R  	mov _IIC_ISR_2[0],a
 406  00D5  2800     R  	jmp _L68
 406  00D6              _L66:
 411  00D6              #line 411 "C:\Users\my asus\Desktop\Git_project\Touch-Slave\USER_PROGRAM\USER_PROGRAM.C"
 411  00D6  0700     R  	mov a,_SYS_INF[1]
 411  00D7  0080     R  	mov _IIC_ISR_2[0],a
 411  00D8  2800     R  	jmp _L68
 411  00D9              _L80:
 417  00D9              #line 417 "C:\Users\my asus\Desktop\Git_project\Touch-Slave\USER_PROGRAM\USER_PROGRAM.C"
 417  00D9  0FAA        	mov a,170
 417  00DA  0080     R  	mov _IIC_ISR_2[0],a
 417  00DB              _L68:
 420  00DB              #line 420 "C:\Users\my asus\Desktop\Git_project\Touch-Slave\USER_PROGRAM\USER_PROGRAM.C"
 420  00DB  0700     R  	mov a,_IIC_ISR_2[0]
 420  00DC  00A6        	mov [38],a
 422  00DD              #line 422 "C:\Users\my asus\Desktop\Git_project\Touch-Slave\USER_PROGRAM\USER_PROGRAM.C"
 422  00DD  0700     R  	mov a,_IIC_ISR_2[0]
 422  00DE  0380     R  	addm a,_I2C[5]
 422  00DF              _L85:
 424  00DF              #line 424 "C:\Users\my asus\Desktop\Git_project\Touch-Slave\USER_PROGRAM\USER_PROGRAM.C"
 424  00DF  1480     R  	inc _I2C[2]
 425  00E0              #line 425 "C:\Users\my asus\Desktop\Git_project\Touch-Slave\USER_PROGRAM\USER_PROGRAM.C"
 425  00E0  0700     R  	mov a,_I2C[2]
 425  00E1  0200     R  	sub a,_I2C[1]
 425  00E2  380A        	snz c
 425  00E3  2800     R  	jmp _L32
 426  00E4              #line 426 "C:\Users\my asus\Desktop\Git_project\Touch-Slave\USER_PROGRAM\USER_PROGRAM.C"
 426  00E4  1F80     R  	set _I2C[2]
 426  00E5  2800     R  	jmp _L32
 426  00E6              _L47:
 432  00E6              #line 432 "C:\Users\my asus\Desktop\Git_project\Touch-Slave\USER_PROGRAM\USER_PROGRAM.C"
文件：USER_PROGRAM.C 编译器版本 HGASM 0202 页次13

 432  00E6  0726        	mov a,[38]
 432  00E7  0080     R  	mov _IIC_ISR_2[0],a
 433  00E8              #line 433 "C:\Users\my asus\Desktop\Git_project\Touch-Slave\USER_PROGRAM\USER_PROGRAM.C"
 433  00E8  35A5        	clr [37].3
 435  00E9              #line 435 "C:\Users\my asus\Desktop\Git_project\Touch-Slave\USER_PROGRAM\USER_PROGRAM.C"
 435  00E9  1080     R  	sz _I2C[3]
 435  00EA  2800     R  	jmp _L70
 439  00EB              #line 439 "C:\Users\my asus\Desktop\Git_project\Touch-Slave\USER_PROGRAM\USER_PROGRAM.C"
 439  00EB  0700     R  	mov a,_IIC_ISR_2[0]
 439  00EC  0EF0        	and a,240
 439  00ED  0080     R  	mov _I2C[0],a
 441  00EE              #line 441 "C:\Users\my asus\Desktop\Git_project\Touch-Slave\USER_PROGRAM\USER_PROGRAM.C"
 441  00EE  0700     R  	mov a,_I2C[0]
 441  00EF  0080     R  	mov _IIC_ISR_2[1],a
 441  00F0  0700     R  	mov a,_IIC_ISR_2[1]
 441  00F1  0AB0        	sub a,176
 441  00F2  3D0A        	sz z
 441  00F3  2800     R  	jmp _L72
 441  00F4  0A10        	sub a,(192)-(176)
 441  00F5  3D0A        	sz z
 441  00F6  2800     R  	jmp _L73
 441  00F7  0700     R  	mov a,_IIC_ISR_2[1]
 441  00F8  0AD0        	sub a,208
 441  00F9  3D0A        	sz z
 441  00FA  2800     R  	jmp _L74
 441  00FB  0A10        	sub a,(224)-(208)
 441  00FC  3D0A        	sz z
 441  00FD  2800     R  	jmp _L75
 441  00FE  0700     R  	mov a,_IIC_ISR_2[1]
 441  00FF  0AF0        	sub a,240
 441  0100  390A        	snz z
 441  0101  2800     R  	jmp _L81
 448  0102              #line 448 "C:\Users\my asus\Desktop\Git_project\Touch-Slave\USER_PROGRAM\USER_PROGRAM.C"
 448  0102  0F02        	mov a,2
 448  0103  0080     R  	mov _I2C[1],a
 448  0104  0FF0        	mov a,240
 448  0105  0080     R  	mov _I2C[2],a
 448  0106  2800     R  	jmp _L77
 448  0107              _L72:
 444  0107              #line 444 "C:\Users\my asus\Desktop\Git_project\Touch-Slave\USER_PROGRAM\USER_PROGRAM.C"
 444  0107  0F0C        	mov a,12
 444  0108  0080     R  	mov _I2C[1],a
 444  0109  0FB0        	mov a,176
 444  010A  0080     R  	mov _I2C[2],a
 444  010B  2800     R  	jmp _L77
 444  010C              _L73:
 445  010C              #line 445 "C:\Users\my asus\Desktop\Git_project\Touch-Slave\USER_PROGRAM\USER_PROGRAM.C"
 445  010C  0F02        	mov a,2
 445  010D  0080     R  	mov _I2C[1],a
 445  010E  0FC0        	mov a,192
 445  010F  0080     R  	mov _I2C[2],a
 445  0110  2800     R  	jmp _L77
 445  0111              _L74:
 446  0111              #line 446 "C:\Users\my asus\Desktop\Git_project\Touch-Slave\USER_PROGRAM\USER_PROGRAM.C"
 446  0111  0F02        	mov a,2
 446  0112  0080     R  	mov _I2C[1],a
 446  0113  0FD0        	mov a,208
 446  0114  0080     R  	mov _I2C[2],a
 446  0115  2800     R  	jmp _L77
 446  0116              _L75:
文件：USER_PROGRAM.C 编译器版本 HGASM 0202 页次14

 447  0116              #line 447 "C:\Users\my asus\Desktop\Git_project\Touch-Slave\USER_PROGRAM\USER_PROGRAM.C"
 447  0116  0F02        	mov a,2
 447  0117  0080     R  	mov _I2C[1],a
 447  0118  0FE0        	mov a,224
 447  0119  0080     R  	mov _I2C[2],a
 447  011A  2800     R  	jmp _L77
 447  011B              _L81:
 449  011B              #line 449 "C:\Users\my asus\Desktop\Git_project\Touch-Slave\USER_PROGRAM\USER_PROGRAM.C"
 449  011B  0F03        	mov a,3
 449  011C  0080     R  	mov _I2C[1],a
 449  011D  0FA0        	mov a,160
 449  011E  0080     R  	mov _I2C[2],a
 449  011F              _L77:
 451  011F              #line 451 "C:\Users\my asus\Desktop\Git_project\Touch-Slave\USER_PROGRAM\USER_PROGRAM.C"
 451  011F  1F00     R  	clr _I2C[5]
 451  0120  2800     R  	jmp _L82
 451  0121              _L70:
 455  0121              #line 455 "C:\Users\my asus\Desktop\Git_project\Touch-Slave\USER_PROGRAM\USER_PROGRAM.C"
 455  0121  0700     R  	mov a,_I2C[1]
 455  0122  0200     R  	sub a,_I2C[3]
 455  0123  380A        	snz c
 455  0124  2800     R  	jmp _L78
 457  0125              #line 457 "C:\Users\my asus\Desktop\Git_project\Touch-Slave\USER_PROGRAM\USER_PROGRAM.C"
 457  0125  0F00     R  	mov a,low (offset _I2C_Data-1)
 457  0126  0300     R  	add a,_I2C[3]
 457  0127  0083        	mov mp,a
 457  0128  0F00     R  	mov a,high (offset _I2C_Data-1)
 457  0129  1F01        	clr sbp
 457  012A  1381        	adcm a,sbp
 457  012B  0701        	mov a,sbp
 457  012C  0084        	mov bp,a
 457  012D  0700     R  	mov a,_IIC_ISR_2[0]
 457  012E  0082        	mov ir,a
 458  012F              #line 458 "C:\Users\my asus\Desktop\Git_project\Touch-Slave\USER_PROGRAM\USER_PROGRAM.C"
 458  012F  0700     R  	mov a,_IIC_ISR_2[0]
 458  0130  0380     R  	addm a,_I2C[5]
 458  0131  2800     R  	jmp _L82
 458  0132              _L78:
 463  0132              #line 463 "C:\Users\my asus\Desktop\Git_project\Touch-Slave\USER_PROGRAM\USER_PROGRAM.C"
 463  0132  0700     R  	mov a,_IIC_ISR_2[0]
 463  0133  0080     R  	mov _I2C[4],a
 464  0134              #line 464 "C:\Users\my asus\Desktop\Git_project\Touch-Slave\USER_PROGRAM\USER_PROGRAM.C"
 464  0134  3000     R  	set _FLAG[0].1
 464  0135              _L82:
 465  0135              #line 465 "C:\Users\my asus\Desktop\Git_project\Touch-Slave\USER_PROGRAM\USER_PROGRAM.C"
 465  0135  1480     R  	inc _I2C[3]
 465  0136              _L32:
 465  0136  0700     E  	mov a,r2
 465  0137  0084        	mov bp,a
 465  0138  0700     E  	mov a,r3
 465  0139  008A        	mov status,a
 465  013A  0700     E  	mov a,r4
 465  013B  0083        	mov mp,a
 465  013C  0700     E  	mov a,r5
 465  013D  0081        	mov sbp,a
 465  013E  0700     E  	mov a,r1
 465  013F  0004        	reti
 465  0140              _IIC_ISR endp
 465  0140              
 465  0140              #line 465 "C:\Users\my asus\Desktop\Git_project\Touch-Slave\USER_PROGRAM\USER_PROGRAM.C"
文件：USER_PROGRAM.C 编译器版本 HGASM 0202 页次15

 465  0140              #pragma debug scope 1 1
  87  0140              #line 87 "C:\Users\my asus\Desktop\Git_project\Touch-Slave\USER_PROGRAM\USER_PROGRAM.C"
  87  0140              public _SYS_INF
  87  0000              @HCCINIT0 .section 'data'
  87  0000  0003[       _SYS_INF	db 3 dup(0)
            00
            ]
  87  0003              #pragma debug array 42 8 3 1
  87  0003              #pragma debug array 42 8 3 1
  87  0003              #pragma debug variable 42 1 _SYS_INF "SYS_INF"
  87  0003              
  87  0000              @HCCINIT .section 'data'
  80  0000              #line 80 "C:\Users\my asus\Desktop\Git_project\Touch-Slave\USER_PROGRAM\USER_PROGRAM.C"
  80  0000              public _MCU_INF
  80  0003              @HCCINIT0 .section 'data'
  80  0003  0003[       _MCU_INF	db 3 dup(0)
            00
            ]
  80  0006              #pragma debug variable 42 1 _MCU_INF "MCU_INF"
  80  0006              
  80  0000              @HCCINIT .section 'data'
  78  0000              #line 78 "C:\Users\my asus\Desktop\Git_project\Touch-Slave\USER_PROGRAM\USER_PROGRAM.C"
  78  0000              public _I2C_Data
  78  0006              @HCCINIT0 .section 'data'
  78  0006  000C[       _I2C_Data	db 12 dup(0)
            00
            ]
  78  0012              #pragma debug array 43 8 12 1
  78  0012              #pragma debug array 43 8 12 1
  78  0012              #pragma debug variable 43 1 _I2C_Data "I2C_Data"
  78  0012              
  78  0000              @HCCINIT .section 'data'
  76  0000              #line 76 "C:\Users\my asus\Desktop\Git_project\Touch-Slave\USER_PROGRAM\USER_PROGRAM.C"
  76  0000              public _I2C
  76  0012              @HCCINIT0 .section 'data'
  76  0012  0006[       _I2C	db 6 dup(0)
            00
            ]
  76  0018              #pragma debug struct_end
  76  0018              #pragma debug struct_end
  76  0018              #pragma debug variable 44 1 _I2C "I2C"
  76  0018              
  76  0000              @HCCINIT .section 'data'
  57  0000              #line 57 "C:\Users\my asus\Desktop\Git_project\Touch-Slave\USER_PROGRAM\USER_PROGRAM.C"
  57  0000              public _FLAG
  57  0018              @HCCINIT0 .section 'data'
  57  0018              _FLAG	db 0
  57  0019              #pragma debug struct_end
  57  0019              #pragma debug struct_end
  57  0019              #pragma debug union_end
  57  0019              #pragma debug union_end
  57  0019              #pragma debug variable 46 1 _FLAG "FLAG"
  57  0019              
  57  0000              @HCCINIT .section 'data'
  57  0000              public _IC_PAGE_HEAD
  57  0000              @crom	.section 'crom'
  55  0000              #line 55 "C:\Users\my asus\Desktop\Git_project\Touch-Slave\USER_PROGRAM\USER_PROGRAM.C"
  55  0000              @crom	.section	'crom'
  55  0000              _IC_PAGE_HEAD:
  55  0000              #pragma debug array 47 8 6 1
文件：USER_PROGRAM.C 编译器版本 HGASM 0202 页次16

  55  0000              #pragma debug array 47 8 6 1
  55  0000              #pragma debug variable 47 1 _IC_PAGE_HEAD "IC_PAGE_HEAD"
  55  0000              	db -96
  55  0001              	db -80
  55  0001              	db -64
  55  0002              	db -48
  55  0002              	db -32
  55  0003              	db -16
  55  0003              public _DeviceAddress
  54  0003              #line 54 "C:\Users\my asus\Desktop\Git_project\Touch-Slave\USER_PROGRAM\USER_PROGRAM.C"
  54  0003              @crom	.section	'crom'
  54  0003              _DeviceAddress:
  54  0003              #pragma debug variable 8 1 _DeviceAddress "DeviceAddress"
  54  0003              	db 40
  54  0004              public _Version
  30  0004              #line 30 "C:\Users\my asus\Desktop\Git_project\Touch-Slave\USER_PROGRAM\USER_PROGRAM.C"
  30  0004              @crom	.section	'crom'
  30  0004              _Version:
  30  0004              #pragma debug variable 8 1 _Version "Version"
  30  0004              	db 28
  30  0004              public _IC_PAGE_SIZS
  29  0004              #line 29 "C:\Users\my asus\Desktop\Git_project\Touch-Slave\USER_PROGRAM\USER_PROGRAM.C"
  29  0004              @crom	.section	'crom'
  29  0004              _IC_PAGE_SIZS:
  29  0004              #pragma debug variable 47 1 _IC_PAGE_SIZS "IC_PAGE_SIZS"
  29  0004              	db 3
  29  0005              	db 12
  29  0005              	db 2
  29  0006              	db 2
  29  0006              	db 2
  29  0007              	db 2
  29  0007              #pragma debug variable 8 1 ___acc "__acc" 1
  29  0007              #pragma debug struct_end
  29  0007              #pragma debug struct_end
  29  0007              #pragma debug union_end
  29  0007              #pragma debug union_end
  29  0007              #pragma debug variable 49 1 ___intc0 "__intc0" 1
  29  0007              #pragma debug struct_end
  29  0007              #pragma debug struct_end
  29  0007              #pragma debug union_end
  29  0007              #pragma debug union_end
  29  0007              #pragma debug variable 51 1 ___intc1 "__intc1" 1
  29  0007              #pragma debug struct_end
  29  0007              #pragma debug struct_end
  29  0007              #pragma debug union_end
  29  0007              #pragma debug union_end
  29  0007              #pragma debug variable 53 1 ___pa "__pa" 1
  29  0007              #pragma debug struct_end
  29  0007              #pragma debug struct_end
  29  0007              #pragma debug union_end
  29  0007              #pragma debug union_end
  29  0007              #pragma debug variable 55 1 ___pac "__pac" 1
  29  0007              #pragma debug struct_end
  29  0007              #pragma debug struct_end
  29  0007              #pragma debug union_end
  29  0007              #pragma debug union_end
  29  0007              #pragma debug variable 57 1 ___papu "__papu" 1
  29  0007              #pragma debug struct_end
  29  0007              #pragma debug struct_end
  29  0007              #pragma debug union_end
文件：USER_PROGRAM.C 编译器版本 HGASM 0202 页次17

  29  0007              #pragma debug union_end
  29  0007              #pragma debug variable 59 1 ___pawu "__pawu" 1
  29  0007              #pragma debug struct_end
  29  0007              #pragma debug struct_end
  29  0007              #pragma debug union_end
  29  0007              #pragma debug union_end
  29  0007              #pragma debug variable 61 1 ___wdtc "__wdtc" 1
  29  0007              #pragma debug struct_end
  29  0007              #pragma debug struct_end
  29  0007              #pragma debug union_end
  29  0007              #pragma debug union_end
  29  0007              #pragma debug variable 63 1 ___i2ctoc "__i2ctoc" 1
  29  0007              #pragma debug struct_end
  29  0007              #pragma debug struct_end
  29  0007              #pragma debug union_end
  29  0007              #pragma debug union_end
  29  0007              #pragma debug variable 65 1 ___simc0 "__simc0" 1
  29  0007              #pragma debug struct_end
  29  0007              #pragma debug struct_end
  29  0007              #pragma debug union_end
  29  0007              #pragma debug union_end
  29  0007              #pragma debug variable 67 1 ___simc1 "__simc1" 1
  29  0007              #pragma debug variable 8 1 ___simd "__simd" 1
  29  0007              #pragma debug variable 8 1 ___sima "__sima" 1
  29  0007              
  29  0007              ; output external variables
  29  0007              extern _STANDBY_TIME:byte
  29  0007              extern _KEY_DATA:byte
  29  0007              extern _GLOBE_VARIES:byte
  29  0007              extern _KEY_IO_SEL:byte
  29  0007              extern r1:byte
  29  0007              extern r2:byte
  29  0007              extern r3:byte
  29  0007              extern r4:byte
  29  0007              extern r5:byte
  29  0007              extern _GET_KEY_BITMAP:near
  29  0007              
  29  0007              ; 
  29  0007              ; Generated by holtek-gcc v3.17, Mon Feb 12 14:58:58 2018
  29  0007              ; Rebuild 307
  29  0007              ; end of file


        0 Errors, 0