文件：TOUCH_SLAVE_CONF.H 编译器版本 HGASM 0202 页次1


   1  0000              ; Generated by holtek-gcc v3.18, Mon Mar 12 14:18:20 2018
   2  0000              ; 
   3  0000              ; Configuration:
   4  0000              ;       without long instruction
   5  0000              ;       Single ROM, Multi-RAM
   6  0000              ;       bits_per_rom_unit:16
   7  0000              ;       with mp1
   8  0000              ;       with tbhp, address(0x9)
   9  0000              ;          Use tabrd-const
  10  0000              ;       
  11  0000              ;       
  12  0000              ;       
  13  0000              ; use 'tabrdc' instead of 'tabrd'
  14  0000              ;       
  15  0000              
  16  0000              #pragma translator "holtek-gcc 4.6.4" "3.18" "build 20130711"
  17  0000              ; Rebuild 126
  18  0000              
  19  0000              ir equ [2]
  20  0000              mp equ [3]
  21  0000              sbp equ [1]
  22  0000              acc equ [5]
  23  0000              bp equ [4]
  24  0000              tblp equ [7]
  25  0000              tbhp equ [9]
  26  0000              status equ [10]
  27  0000              c equ [10].0
  28  0000              ac equ [10].1
  29  0000              z equ [10].2
  30  0000              ov equ [10].3
  31  0000              intc equ [11]
  32  0000              
  33  0000              extern ra:byte
  34  0000              extern rb:byte
  35  0000              extern rc:byte
  36  0000              extern rd:byte
  37  0000              extern re:byte
  38  0000              extern rf:byte
  39  0000              extern rg:byte
  40  0000              extern rh:byte
  41  0000              extern _Crom2Prom:near
  42  0000              extern _Crom2PromNext:near
  43  0000              
  44  0000              RAMBANK 0 @HCCINIT, @HCCINIT0
  45  0000              
  46  0000              RAMBANK 0 @BITDATASEC, @BITDATASEC1
  47  0000              @HCCINIT	.section 'data'
  48  0000              @HCCINIT0	.section 'data'
  49  0000              @BITDATASEC	 .section 'data'
  50  0000              @BITDATASEC1	 .section 'data'
  51  0000              
  52  0000              #pragma debug scope 1 1
  53  0000              	extern __DELAY3:near
  54  0000              	extern __DELAYX3:near
  55  0000              	extern __DELAYX6:near
  56  0000              	extern __DELAYY5:near
  57  0000              	extern __DELAYY3:near
  58  0000              	extern _builtin_holtek_delay_2:byte
  59  0000              public _DATA_LIST_UPDATA
文件：USER_PROGRAM.ASM 编译器版本 HGASM 0202 页次2

  60  0000              #pragma debug scope 2 1

  81  0000              #line 81 "D:\Git_project\Touch-Slave\USER_PROGRAM\USER_PROGRAM.C"
  81  0000              _DATA_LIST_UPDATA .section 'code'
  81  0000              _DATA_LIST_UPDATA proc
  81  0000  00              local _DATA_LIST_UPDATA_2 db 1 dup(?)	; 0,1
  84  0001              #line 84 "D:\Git_project\Touch-Slave\USER_PROGRAM\USER_PROGRAM.C"
  84  0000  0F00     R  	mov a,low offset _IC_PAGE_SIZS
  84  0001  0300     R  	add a,_I2C[0]
  84  0002  0083        	mov mp,a
  84  0003  0F00     R  	mov a,high offset _IC_PAGE_SIZS
  84  0004  1F01        	clr sbp
  84  0005  1381        	adcm a,sbp
  84  0006  2000     E  	call _Crom2Prom
  84  0007  0080     R  	mov _I2C[1],a
  86  0008              #line 86 "D:\Git_project\Touch-Slave\USER_PROGRAM\USER_PROGRAM.C"
  86  0008  0700     R  	mov a,_I2C[0]
  86  0009  0080     R  	mov _DATA_LIST_UPDATA_2[0],a
  86  000A  0700     R  	mov a,_DATA_LIST_UPDATA_2[0]
  86  000B  0A00        	sub a,0
  86  000C  3D0A        	sz z
  86  000D  2800     R  	jmp _L11
  86  000E  0A01        	sub a,(1)-(0)
  86  000F  3D0A        	sz z
  86  0010  2800     R  	jmp _L9
  86  0011              #line 86 "D:\Git_project\Touch-Slave\USER_PROGRAM\USER_PROGRAM.C"
  86  0011  0700     R  	mov a,_DATA_LIST_UPDATA_2[0]
  86  0012  0A02        	sub a,2
  86  0013  3D0A        	sz z
  86  0014  2800     R  	jmp _L5
  86  0015  0700     R  	mov a,_DATA_LIST_UPDATA_2[0]
  86  0016  0A03        	sub a,3
  86  0017  390A        	snz z
  86  0018  2800     R  	jmp _L10
  91  0019              #line 91 "D:\Git_project\Touch-Slave\USER_PROGRAM\USER_PROGRAM.C"
  91  0019  0F00     R  	mov a,low offset _MCU_INF
  91  001A  0080     E  	mov rb,a
  91  001B  0F00     R  	mov a,high offset _MCU_INF
  91  001C  0080     E  	mov rc,a
  91  001D  2800     R  	jmp _L4
  91  001E              _L5:
  90  001E              #line 90 "D:\Git_project\Touch-Slave\USER_PROGRAM\USER_PROGRAM.C"
  90  001E  0F00     E  	mov a,low offset _KEY_IO_SEL
  90  001F  0080     E  	mov rb,a
  90  0020  0F00     E  	mov a,high offset _KEY_IO_SEL
  90  0021  0080     E  	mov rc,a
  90  0022  2800     R  	jmp _L4
  90  0023              _L10:
  92  0023              #line 92 "D:\Git_project\Touch-Slave\USER_PROGRAM\USER_PROGRAM.C"
  92  0023  1F00     R  	clr _I2C[1]
  92  0024              _L11:
  92  0024  0F00     E  	mov a,low offset _GLOBE_VARIES
  92  0025  0080     E  	mov rb,a
  92  0026  0F00     E  	mov a,high offset _GLOBE_VARIES
  92  0027  0080     E  	mov rc,a
  92  0028  2800     R  	jmp _L4
  92  0029              _L9:
  89  0029              #line 89 "D:\Git_project\Touch-Slave\USER_PROGRAM\USER_PROGRAM.C"
  89  0029  0F00     E  	mov a,low (offset _GLOBE_VARIES+3)
  89  002A  0080     E  	mov rb,a
文件：USER_PROGRAM.C 编译器版本 HGASM 0202 页次3

  89  002B  0F00     E  	mov a,high (offset _GLOBE_VARIES+3)
  89  002C  0080     E  	mov rc,a
  89  002D              _L4:
  96  002D              #line 96 "D:\Git_project\Touch-Slave\USER_PROGRAM\USER_PROGRAM.C"
  96  002D  1F00     R  	clr _I2C[3]
  96  002E  2800     R  	jmp _L7
  96  002F              _L8:
  98  002F              #line 98 "D:\Git_project\Touch-Slave\USER_PROGRAM\USER_PROGRAM.C"
  98  002F  0F00     R  	mov a,low offset _I2C_Data
  98  0030  0300     R  	add a,_I2C[3]
  98  0031  0083        	mov mp,a
  98  0032  0F00     R  	mov a,high offset _I2C_Data
  98  0033  1F01        	clr sbp
  98  0034  1381        	adcm a,sbp
  98  0035  2000     E  	call _Crom2Prom
  98  0036  0080     E  	mov ra,a
  98  0037  0700     R  	mov a,_I2C[3]
  98  0038  0300     E  	add a,rb
  98  0039  0083        	mov mp,a
  98  003A  1F05        	clr acc
  98  003B  1300     E  	adc a,rc
  98  003C  0081        	mov sbp,a
  98  003D  0701        	mov a,sbp
  98  003E  0084        	mov bp,a
  98  003F  0700     E  	mov a,ra
  98  0040  0082        	mov ir,a
  96  0041              #line 96 "D:\Git_project\Touch-Slave\USER_PROGRAM\USER_PROGRAM.C"
  96  0041  1480     R  	inc _I2C[3]
  96  0042              _L7:
  96  0042  0700     R  	mov a,_I2C[3]
  96  0043  0200     R  	sub a,_I2C[1]
  96  0044  380A        	snz c
  96  0045  2800     R  	jmp _L8
  96  0046  0003        	ret
  96  0047              _DATA_LIST_UPDATA endp
  96  0047              #line 96 "D:\Git_project\Touch-Slave\USER_PROGRAM\USER_PROGRAM.C"
  96  0047              #pragma debug scope 1 1
  96  0047              public _I2C_LIST_INIT
  96  0047              #pragma debug scope 3 1
 105  0047              #line 105 "D:\Git_project\Touch-Slave\USER_PROGRAM\USER_PROGRAM.C"
 105  0000              _I2C_LIST_INIT .section 'code'
 105  0000              _I2C_LIST_INIT proc
 106  0000              #line 106 "D:\Git_project\Touch-Slave\USER_PROGRAM\USER_PROGRAM.C"
 106  0000  1F00     R  	clr _I2C[0]
 107  0001              #line 107 "D:\Git_project\Touch-Slave\USER_PROGRAM\USER_PROGRAM.C"
 107  0001  1F00     R  	clr _I2C[1]
 108  0002              #line 108 "D:\Git_project\Touch-Slave\USER_PROGRAM\USER_PROGRAM.C"
 108  0002  1F00     R  	clr _I2C[3]
 109  0003              #line 109 "D:\Git_project\Touch-Slave\USER_PROGRAM\USER_PROGRAM.C"
 109  0003  1F00     R  	clr _I2C[2]
 110  0004              #line 110 "D:\Git_project\Touch-Slave\USER_PROGRAM\USER_PROGRAM.C"
 110  0004  1F00     R  	clr _I2C[4]
 111  0005              #line 111 "D:\Git_project\Touch-Slave\USER_PROGRAM\USER_PROGRAM.C"
 111  0005  1F00     R  	clr _I2C[5]
 112  0006              #line 112 "D:\Git_project\Touch-Slave\USER_PROGRAM\USER_PROGRAM.C"
 112  0006  3400     R  	clr _FLAG[0].1
 113  0007              #line 113 "D:\Git_project\Touch-Slave\USER_PROGRAM\USER_PROGRAM.C"
 113  0007  3400     R  	clr _FLAG[0].0
 113  0008  0003        	ret
 113  0009              _I2C_LIST_INIT endp
文件：USER_PROGRAM.C 编译器版本 HGASM 0202 页次4

 113  0009              #line 113 "D:\Git_project\Touch-Slave\USER_PROGRAM\USER_PROGRAM.C"
 113  0009              #pragma debug scope 1 1
 113  0009              public _SYS_LIST_INIT
 113  0009              #pragma debug scope 4 1
 118  0009              #line 118 "D:\Git_project\Touch-Slave\USER_PROGRAM\USER_PROGRAM.C"
 118  0000              _SYS_LIST_INIT .section 'code'
 118  0000              _SYS_LIST_INIT proc
 119  0000              #line 119 "D:\Git_project\Touch-Slave\USER_PROGRAM\USER_PROGRAM.C"
 119  0000  0F0F        	mov a,15
 119  0001  0080     R  	mov _MCU_INF[0],a
 120  0002              #line 120 "D:\Git_project\Touch-Slave\USER_PROGRAM\USER_PROGRAM.C"
 120  0002  0F4E        	mov a,78
 120  0003  0080     R  	mov _MCU_INF[1],a
 122  0004              #line 122 "D:\Git_project\Touch-Slave\USER_PROGRAM\USER_PROGRAM.C"
 122  0004  0F0F        	mov a,15
 122  0005  0080     R  	mov _SYS_INF[0],a
 123  0006              #line 123 "D:\Git_project\Touch-Slave\USER_PROGRAM\USER_PROGRAM.C"
 123  0006  0F18        	mov a,24
 123  0007  0080     R  	mov _SYS_INF[1],a
 124  0008              #line 124 "D:\Git_project\Touch-Slave\USER_PROGRAM\USER_PROGRAM.C"
 124  0008  3000     R  	set _FLAG[0].0
 124  0009  0003        	ret
 124  000A              _SYS_LIST_INIT endp
 124  000A              #line 124 "D:\Git_project\Touch-Slave\USER_PROGRAM\USER_PROGRAM.C"
 124  000A              #pragma debug scope 1 1
 124  000A              ___pawu equ [23]
 124  000A              ___papu equ [22]
 124  000A              ___pa equ [20]
 124  000A              ___pac equ [21]
 124  000A              ___integ equ [13]
 124  000A              ___intc0 equ [14]
 124  000A              ___simc0 equ [36]
 124  000A              ___sima equ [39]
 124  000A              ___i2ctoc equ [35]
 124  000A              ___intc1 equ [15]
 124  000A              public _USER_PROGRAM_INITIAL
 124  000A              #pragma debug scope 5 1
 129  000A              #line 129 "D:\Git_project\Touch-Slave\USER_PROGRAM\USER_PROGRAM.C"
 129  0000              _USER_PROGRAM_INITIAL .section 'code'
 129  0000              _USER_PROGRAM_INITIAL proc
 132  0000              #line 132 "D:\Git_project\Touch-Slave\USER_PROGRAM\USER_PROGRAM.C"
 132  0000  1F17        	clr [23]
 133  0001              #line 133 "D:\Git_project\Touch-Slave\USER_PROGRAM\USER_PROGRAM.C"
 133  0001  1F16        	clr [22]
 135  0002              #line 135 "D:\Git_project\Touch-Slave\USER_PROGRAM\USER_PROGRAM.C"
 135  0002  1F14        	clr [20]
 136  0003              #line 136 "D:\Git_project\Touch-Slave\USER_PROGRAM\USER_PROGRAM.C"
 136  0003  1F95        	set [21]
 141  0004              #line 141 "D:\Git_project\Touch-Slave\USER_PROGRAM\USER_PROGRAM.C"
 141  0004  3094        	set [20].1
 142  0005              #line 142 "D:\Git_project\Touch-Slave\USER_PROGRAM\USER_PROGRAM.C"
 142  0005  3495        	clr [21].1
 150  0006              #line 150 "D:\Git_project\Touch-Slave\USER_PROGRAM\USER_PROGRAM.C"
 150  0006  3216        	set [22].4
 154  0007              #line 154 "D:\Git_project\Touch-Slave\USER_PROGRAM\USER_PROGRAM.C"
 154  0007  3215        	set [21].4
 155  0008              #line 155 "D:\Git_project\Touch-Slave\USER_PROGRAM\USER_PROGRAM.C"
 155  0008  0F02        	mov a,2
 155  0009  008D        	mov [13],a
 156  000A              #line 156 "D:\Git_project\Touch-Slave\USER_PROGRAM\USER_PROGRAM.C"
文件：USER_PROGRAM.C 编译器版本 HGASM 0202 页次5

 156  000A  360E        	clr [14].4
 157  000B              #line 157 "D:\Git_project\Touch-Slave\USER_PROGRAM\USER_PROGRAM.C"
 157  000B  308E        	set [14].1
 175  000C              #line 175 "D:\Git_project\Touch-Slave\USER_PROGRAM\USER_PROGRAM.C"
 175  000C  0FC2        	mov a,194
 175  000D  00A4        	mov [36],a
 176  000E              #line 176 "D:\Git_project\Touch-Slave\USER_PROGRAM\USER_PROGRAM.C"
 176  000E  0F28        	mov a,40
 176  000F  00A7        	mov [39],a
 179  0010              #line 179 "D:\Git_project\Touch-Slave\USER_PROGRAM\USER_PROGRAM.C"
 179  0010  0FBF        	mov a,191
 179  0011  00A3        	mov [35],a
 180  0012              #line 180 "D:\Git_project\Touch-Slave\USER_PROGRAM\USER_PROGRAM.C"
 180  0012  360F        	clr [15].4
 181  0013              #line 181 "D:\Git_project\Touch-Slave\USER_PROGRAM\USER_PROGRAM.C"
 181  0013  300F        	set [15].0
 183  0014              #line 183 "D:\Git_project\Touch-Slave\USER_PROGRAM\USER_PROGRAM.C"
 183  0014  2000     R  	call _SYS_LIST_INIT
 185  0015              #line 185 "D:\Git_project\Touch-Slave\USER_PROGRAM\USER_PROGRAM.C"
 185  0015  300E        	set [14].0
 185  0016  0003        	ret
 185  0017              _USER_PROGRAM_INITIAL endp
 185  0017              #line 185 "D:\Git_project\Touch-Slave\USER_PROGRAM\USER_PROGRAM.C"
 185  0017              #pragma debug scope 1 1
 185  0017              ___wdtc equ [26]
 185  0017              public _USER_PROGRAM
 185  0017              #pragma debug scope 6 1
 192  0017              #line 192 "D:\Git_project\Touch-Slave\USER_PROGRAM\USER_PROGRAM.C"
 192  0000              _USER_PROGRAM .section 'code'
 192  0000              _USER_PROGRAM proc
 193  0000              #line 193 "D:\Git_project\Touch-Slave\USER_PROGRAM\USER_PROGRAM.C"
 193  0000  2000     E  	call _GET_KEY_BITMAP
 196  0001              #line 196 "D:\Git_project\Touch-Slave\USER_PROGRAM\USER_PROGRAM.C"
 196  0001  0700     E  	mov a,_KEY_IO_SEL[0]
 196  0002  0600     E  	and a,_KEY_DATA[0]
 196  0003  0080     E  	mov rb,a
 196  0004  0700     E  	mov a,rb
 196  0005  0080     E  	mov _KEY_DATA[0],a
 220  0006              #line 220 "D:\Git_project\Touch-Slave\USER_PROGRAM\USER_PROGRAM.C"
 220  0006  0700     E  	mov a,_KEY_IO_SEL[1]
 220  0007  0600     E  	and a,_KEY_DATA[1]
 220  0008  0080     E  	mov ra,a
 220  0009  0700     E  	mov a,ra
 220  000A  0080     E  	mov _KEY_DATA[1],a
 222  000B              #line 222 "D:\Git_project\Touch-Slave\USER_PROGRAM\USER_PROGRAM.C"
 222  000B  1080     E  	sz rb
 222  000C  2800     R  	jmp _L17
 222  000D              #line 222 "D:\Git_project\Touch-Slave\USER_PROGRAM\USER_PROGRAM.C"
 222  000D  1080     E  	sz ra
 222  000E  2800     R  	jmp _LI1
 222  000F  2800     R  	jmp _L18
 222  0010              _LI1:
 222  0010              _L17:
 224  0010              #line 224 "D:\Git_project\Touch-Slave\USER_PROGRAM\USER_PROGRAM.C"
 224  0010  3494        	clr [20].1
 226  0011              #line 226 "D:\Git_project\Touch-Slave\USER_PROGRAM\USER_PROGRAM.C"
 226  0011  0F7F        	mov a,127
 226  0012  0080     E  	mov _STANDBY_TIME[0],a
 226  0013  2800     R  	jmp _L19
 226  0014              _L18:
文件：USER_PROGRAM.C 编译器版本 HGASM 0202 页次6

 230  0014              #line 230 "D:\Git_project\Touch-Slave\USER_PROGRAM\USER_PROGRAM.C"
 230  0014  3094        	set [20].1
 232  0015              #line 232 "D:\Git_project\Touch-Slave\USER_PROGRAM\USER_PROGRAM.C"
 232  0015  0700     R  	mov a,_MCU_INF[1]
 232  0016  0200     E  	sub a,_STANDBY_TIME[0]
 232  0017  380A        	snz c
 232  0018  2800     R  	jmp _L19
 234  0019              #line 234 "D:\Git_project\Touch-Slave\USER_PROGRAM\USER_PROGRAM.C"
 234  0019  1F00     E  	clr _STANDBY_TIME[0]
 234  001A              _L19:
 241  001A              #line 241 "D:\Git_project\Touch-Slave\USER_PROGRAM\USER_PROGRAM.C"
 241  001A  3800     R  	snz _FLAG[0].0
 241  001B  2800     R  	jmp _L20
 243  001C              #line 243 "D:\Git_project\Touch-Slave\USER_PROGRAM\USER_PROGRAM.C"
 243  001C  2000     R  	call _I2C_LIST_INIT
 243  001D              _L20:
 246  001D              #line 246 "D:\Git_project\Touch-Slave\USER_PROGRAM\USER_PROGRAM.C"
 246  001D  3800     R  	snz _FLAG[0].1
 246  001E  2800     R  	jmp _L16
 249  001F              #line 249 "D:\Git_project\Touch-Slave\USER_PROGRAM\USER_PROGRAM.C"
 249  001F  1100     R  	swapa _I2C[0]
 249  0020  0E0F        	and a,0fh
 249  0021  0080     R  	mov _I2C[0],a
 250  0022              #line 250 "D:\Git_project\Touch-Slave\USER_PROGRAM\USER_PROGRAM.C"
 250  0022  0FF6        	mov a,246
 250  0023  0380     R  	addm a,_I2C[0]
 252  0024              #line 252 "D:\Git_project\Touch-Slave\USER_PROGRAM\USER_PROGRAM.C"
 252  0024  0FFE        	mov a,254
 252  0025  0380     R  	addm a,_I2C[3]
 255  0026              #line 255 "D:\Git_project\Touch-Slave\USER_PROGRAM\USER_PROGRAM.C"
 255  0026  0F03        	mov a,3
 255  0027  0200     R  	sub a,_I2C[0]
 255  0028  380A        	snz c
 255  0029  2800     R  	jmp _L22
 255  002A  0F00     R  	mov a,low offset _IC_PAGE_SIZS
 255  002B  0300     R  	add a,_I2C[0]
 255  002C  0083        	mov mp,a
 255  002D  0F00     R  	mov a,high offset _IC_PAGE_SIZS
 255  002E  1F01        	clr sbp
 255  002F  1381        	adcm a,sbp
 255  0030  2000     E  	call _Crom2Prom
 255  0031  0080     E  	mov ra,a
 255  0032  0700     R  	mov a,_I2C[3]
 255  0033  0200     E  	sub a,ra
 255  0034  390A        	snz z
 255  0035  2800     R  	jmp _L22
 257  0036              #line 257 "D:\Git_project\Touch-Slave\USER_PROGRAM\USER_PROGRAM.C"
 257  0036  0100     R  	cpla _I2C[5]
 257  0037  0080     R  	mov _I2C[5],a
 259  0038              #line 259 "D:\Git_project\Touch-Slave\USER_PROGRAM\USER_PROGRAM.C"
 259  0038  0700     R  	mov a,_I2C[4]
 259  0039  0200     R  	sub a,_I2C[5]
 259  003A  390A        	snz z
 259  003B  2800     R  	jmp _L22
 261  003C              #line 261 "D:\Git_project\Touch-Slave\USER_PROGRAM\USER_PROGRAM.C"
 261  003C  0F01        	mov a,1
 261  003D  0080     R  	mov _SYS_INF[0],a
 263  003E              #line 263 "D:\Git_project\Touch-Slave\USER_PROGRAM\USER_PROGRAM.C"
 263  003E  2000     R  	call _DATA_LIST_UPDATA
 266  003F              #line 266 "D:\Git_project\Touch-Slave\USER_PROGRAM\USER_PROGRAM.C"
文件：USER_PROGRAM.C 编译器版本 HGASM 0202 页次7

 266  003F  0700     R  	mov a,_MCU_INF[0]
 266  0040  0A0A        	sub a,10
 266  0041  390A        	snz z
 266  0042  2800     R  	jmp _L24
 268  0043              #line 268 "D:\Git_project\Touch-Slave\USER_PROGRAM\USER_PROGRAM.C"
 268  0043  3494        	clr [20].1
 269  0044              #line 269 "D:\Git_project\Touch-Slave\USER_PROGRAM\USER_PROGRAM.C"
 269  0044  1F9A        	set [26]
 269  0045  2800     R  	jmp _L24
 269  0046              _L22:
 276  0046              #line 276 "D:\Git_project\Touch-Slave\USER_PROGRAM\USER_PROGRAM.C"
 276  0046  1F00     R  	clr _SYS_INF[0]
 276  0047              _L24:
 278  0047              #line 278 "D:\Git_project\Touch-Slave\USER_PROGRAM\USER_PROGRAM.C"
 278  0047  3400     R  	clr _FLAG[0].1
 278  0048              _L16:
 278  0048  0003        	ret
 278  0049              _USER_PROGRAM endp
 278  0049              #line 278 "D:\Git_project\Touch-Slave\USER_PROGRAM\USER_PROGRAM.C"
 278  0049              #pragma debug scope 1 1
 278  0049              ___simc1 equ [37]
 278  0049              ___simd equ [38]
 278  0049              ___acc equ [5]
 278  0049              public _IIC_ISR
 278  0049              #pragma debug scope 7 1
 287  0049              #line 287 "D:\Git_project\Touch-Slave\USER_PROGRAM\USER_PROGRAM.C"
 287  0000              @IIC_ISR_code .section at 16 'code'
 287  0000  0080     E  	mov r1,a
 287  0001  0704        	mov a,bp
 287  0002  0080     E  	mov r2,a
 287  0003  2800     R  	jmp _IIC_ISR
 287  0004              #pragma debug scope 1 1
 287  0004              @dummy16 endp
 287  0004              #pragma debug scope 8 1
 287  0000              _IIC_ISR .section 'code'
 287  0000              _IIC_ISR proc
 287  0000  0002[       local _IIC_ISR_2 db 2 dup(?)
            00
            ]
 287  0000  070A        	mov a,status
 287  0001  0080     E  	mov r3,a
 287  0002  0703        	mov a,mp
 287  0003  0080     E  	mov r4,a
 287  0004  0701        	mov a,sbp
 287  0005  0080     E  	mov r5,a
 287  0006              #pragma debug variable 8 8 _IIC_ISR_2+0 "data"
 290  0006              #line 290 "D:\Git_project\Touch-Slave\USER_PROGRAM\USER_PROGRAM.C"
 290  0006  360F        	clr [15].4
 291  0007              #line 291 "D:\Git_project\Touch-Slave\USER_PROGRAM\USER_PROGRAM.C"
 291  0007  3B23        	snz [35].6
 291  0008  2800     R  	jmp _L32
 293  0009              #line 293 "D:\Git_project\Touch-Slave\USER_PROGRAM\USER_PROGRAM.C"
 293  0009  33A3        	set [35].7
 294  000A              #line 294 "D:\Git_project\Touch-Slave\USER_PROGRAM\USER_PROGRAM.C"
 294  000A  3723        	clr [35].6
 295  000B              #line 295 "D:\Git_project\Touch-Slave\USER_PROGRAM\USER_PROGRAM.C"
 295  000B  3000     R  	set _FLAG[0].0
 295  000C  2800     R  	jmp _L31
 295  000D              _L32:
 299  000D              #line 299 "D:\Git_project\Touch-Slave\USER_PROGRAM\USER_PROGRAM.C"
文件：USER_PROGRAM.C 编译器版本 HGASM 0202 页次8

 299  000D  3B25        	snz [37].6
 299  000E  2800     R  	jmp _L34
 303  000F              #line 303 "D:\Git_project\Touch-Slave\USER_PROGRAM\USER_PROGRAM.C"
 303  000F  3925        	snz [37].2
 303  0010  2800     R  	jmp _L35
 306  0011              #line 306 "D:\Git_project\Touch-Slave\USER_PROGRAM\USER_PROGRAM.C"
 306  0011  1080     R  	sz _I2C[0]
 306  0012  2800     R  	jmp _L36
 308  0013              #line 308 "D:\Git_project\Touch-Slave\USER_PROGRAM\USER_PROGRAM.C"
 308  0013  0F03        	mov a,3
 308  0014  0080     R  	mov _I2C[1],a
 309  0015              #line 309 "D:\Git_project\Touch-Slave\USER_PROGRAM\USER_PROGRAM.C"
 309  0015  0FA0        	mov a,160
 309  0016  0080     R  	mov _I2C[2],a
 310  0017              #line 310 "D:\Git_project\Touch-Slave\USER_PROGRAM\USER_PROGRAM.C"
 310  0017  1F00     R  	clr _I2C[5]
 310  0018              _L36:
 314  0018              #line 314 "D:\Git_project\Touch-Slave\USER_PROGRAM\USER_PROGRAM.C"
 314  0018  0700     R  	mov a,_I2C[2]
 314  0019  0080     R  	mov _IIC_ISR_2[1],a
 314  001A  0700     R  	mov a,_IIC_ISR_2[1]
 314  001B  0AA0        	sub a,160
 314  001C  3D0A        	sz z
 314  001D  2800     R  	jmp _L38
 314  001E  0A10        	sub a,(176)-(160)
 314  001F  3D0A        	sz z
 314  0020  2800     R  	jmp _L39
 314  0021  0700     R  	mov a,_IIC_ISR_2[1]
 314  0022  0AC0        	sub a,192
 314  0023  3D0A        	sz z
 314  0024  2800     R  	jmp _L40
 314  0025  0A10        	sub a,(208)-(192)
 314  0026  3D0A        	sz z
 314  0027  2800     R  	jmp _L41
 314  0028  0700     R  	mov a,_IIC_ISR_2[1]
 314  0029  0AE0        	sub a,224
 314  002A  3D0A        	sz z
 314  002B  2800     R  	jmp _L42
 314  002C  0700     R  	mov a,_IIC_ISR_2[1]
 314  002D  0AF0        	sub a,240
 314  002E  390A        	snz z
 314  002F  2800     R  	jmp _L78
 321  0030              #line 321 "D:\Git_project\Touch-Slave\USER_PROGRAM\USER_PROGRAM.C"
 321  0030  0700     R  	mov a,_SYS_INF[0]
 321  0031  0080     R  	mov _IIC_ISR_2[0],a
 321  0032  0F0F        	mov a,15
 321  0033  0080     R  	mov _SYS_INF[0],a
 321  0034  2800     R  	jmp _L44
 321  0035              _L38:
 316  0035              #line 316 "D:\Git_project\Touch-Slave\USER_PROGRAM\USER_PROGRAM.C"
 316  0035  0700     E  	mov a,_GLOBE_VARIES[0]
 316  0036  0080     R  	mov _IIC_ISR_2[0],a
 316  0037  2800     R  	jmp _L44
 316  0038              _L39:
 317  0038              #line 317 "D:\Git_project\Touch-Slave\USER_PROGRAM\USER_PROGRAM.C"
 317  0038  0700     E  	mov a,_GLOBE_VARIES[3]
 317  0039  0080     R  	mov _IIC_ISR_2[0],a
 317  003A  2800     R  	jmp _L44
 317  003B              _L40:
 318  003B              #line 318 "D:\Git_project\Touch-Slave\USER_PROGRAM\USER_PROGRAM.C"
文件：USER_PROGRAM.C 编译器版本 HGASM 0202 页次9

 318  003B  0700     E  	mov a,_KEY_IO_SEL[0]
 318  003C  0080     R  	mov _IIC_ISR_2[0],a
 318  003D  2800     R  	jmp _L44
 318  003E              _L41:
 319  003E              #line 319 "D:\Git_project\Touch-Slave\USER_PROGRAM\USER_PROGRAM.C"
 319  003E  0700     R  	mov a,_MCU_INF[0]
 319  003F  0080     R  	mov _IIC_ISR_2[0],a
 319  0040  2800     R  	jmp _L44
 319  0041              _L42:
 320  0041              #line 320 "D:\Git_project\Touch-Slave\USER_PROGRAM\USER_PROGRAM.C"
 320  0041  0700     E  	mov a,_KEY_DATA[0]
 320  0042  0080     R  	mov _IIC_ISR_2[0],a
 320  0043  2800     R  	jmp _L44
 320  0044              _L78:
 322  0044              #line 322 "D:\Git_project\Touch-Slave\USER_PROGRAM\USER_PROGRAM.C"
 322  0044  0FAA        	mov a,170
 322  0045  0080     R  	mov _IIC_ISR_2[0],a
 322  0046              _L44:
 324  0046              #line 324 "D:\Git_project\Touch-Slave\USER_PROGRAM\USER_PROGRAM.C"
 324  0046  3225        	set [37].4
 325  0047              #line 325 "D:\Git_project\Touch-Slave\USER_PROGRAM\USER_PROGRAM.C"
 325  0047  0700     R  	mov a,_IIC_ISR_2[0]
 325  0048  00A6        	mov [38],a
 327  0049              #line 327 "D:\Git_project\Touch-Slave\USER_PROGRAM\USER_PROGRAM.C"
 327  0049  0700     R  	mov a,_IIC_ISR_2[0]
 327  004A  0380     R  	addm a,_I2C[5]
 329  004B              #line 329 "D:\Git_project\Touch-Slave\USER_PROGRAM\USER_PROGRAM.C"
 329  004B  0700     R  	mov a,_I2C[2]
 329  004C  0380     R  	addm a,_I2C[1]
 329  004D  2800     R  	jmp _L84
 329  004E              _L35:
 337  004E              #line 337 "D:\Git_project\Touch-Slave\USER_PROGRAM\USER_PROGRAM.C"
 337  004E  3625        	clr [37].4
 338  004F              #line 338 "D:\Git_project\Touch-Slave\USER_PROGRAM\USER_PROGRAM.C"
 338  004F  35A5        	clr [37].3
 339  0050              #line 339 "D:\Git_project\Touch-Slave\USER_PROGRAM\USER_PROGRAM.C"
 339  0050  0726        	mov a,[38]
 339  0051  0085        	mov [5],a
 341  0052              #line 341 "D:\Git_project\Touch-Slave\USER_PROGRAM\USER_PROGRAM.C"
 341  0052  1F00     R  	clr _I2C[3]
 342  0053              #line 342 "D:\Git_project\Touch-Slave\USER_PROGRAM\USER_PROGRAM.C"
 342  0053  1F00     R  	clr _I2C[2]
 343  0054              #line 343 "D:\Git_project\Touch-Slave\USER_PROGRAM\USER_PROGRAM.C"
 343  0054  1F00     R  	clr _I2C[1]
 344  0055              #line 344 "D:\Git_project\Touch-Slave\USER_PROGRAM\USER_PROGRAM.C"
 344  0055  3400     R  	clr _FLAG[0].1
 344  0056  2800     R  	jmp _L31
 344  0057              _L34:
 350  0057              #line 350 "D:\Git_project\Touch-Slave\USER_PROGRAM\USER_PROGRAM.C"
 350  0057  3A25        	snz [37].4
 350  0058  2800     R  	jmp _L46
 352  0059              #line 352 "D:\Git_project\Touch-Slave\USER_PROGRAM\USER_PROGRAM.C"
 352  0059  3825        	snz [37].0
 352  005A  2800     R  	jmp _L47
 354  005B              #line 354 "D:\Git_project\Touch-Slave\USER_PROGRAM\USER_PROGRAM.C"
 354  005B  3625        	clr [37].4
 355  005C              #line 355 "D:\Git_project\Touch-Slave\USER_PROGRAM\USER_PROGRAM.C"
 355  005C  35A5        	clr [37].3
 356  005D              #line 356 "D:\Git_project\Touch-Slave\USER_PROGRAM\USER_PROGRAM.C"
 356  005D  0726        	mov a,[38]
文件：USER_PROGRAM.C 编译器版本 HGASM 0202 页次10

 356  005E  0085        	mov [5],a
 358  005F              #line 358 "D:\Git_project\Touch-Slave\USER_PROGRAM\USER_PROGRAM.C"
 358  005F  1F00     R  	clr _I2C[0]
 359  0060              #line 359 "D:\Git_project\Touch-Slave\USER_PROGRAM\USER_PROGRAM.C"
 359  0060  1F00     R  	clr _I2C[1]
 360  0061              #line 360 "D:\Git_project\Touch-Slave\USER_PROGRAM\USER_PROGRAM.C"
 360  0061  1F00     R  	clr _I2C[2]
 360  0062  2800     R  	jmp _L31
 360  0063              _L47:
 365  0063              #line 365 "D:\Git_project\Touch-Slave\USER_PROGRAM\USER_PROGRAM.C"
 365  0063  0700     R  	mov a,_I2C[2]
 365  0064  0080     R  	mov _IIC_ISR_2[1],a
 365  0065  0700     R  	mov a,_IIC_ISR_2[1]
 365  0066  0AA1        	sub a,161
 365  0067  3D0A        	sz z
 365  0068  2800     R  	jmp _L49
 365  0069  0A01        	sub a,(162)-(161)
 365  006A  3D0A        	sz z
 365  006B  2800     R  	jmp _L50
 365  006C  0700     R  	mov a,_IIC_ISR_2[1]
 365  006D  0AB1        	sub a,177
 365  006E  3D0A        	sz z
 365  006F  2800     R  	jmp _L51
 365  0070  0A01        	sub a,(178)-(177)
 365  0071  3D0A        	sz z
 365  0072  2800     R  	jmp _L52
 365  0073  0700     R  	mov a,_IIC_ISR_2[1]
 365  0074  0AB3        	sub a,179
 365  0075  3D0A        	sz z
 365  0076  2800     R  	jmp _L53
 365  0077  0A01        	sub a,(180)-(179)
 365  0078  3D0A        	sz z
 365  0079  2800     R  	jmp _L54
 365  007A  0700     R  	mov a,_IIC_ISR_2[1]
 365  007B  0AB5        	sub a,181
 365  007C  3D0A        	sz z
 365  007D  2800     R  	jmp _L55
 365  007E  0A01        	sub a,(182)-(181)
 365  007F  3D0A        	sz z
 365  0080  2800     R  	jmp _L56
 365  0081  0700     R  	mov a,_IIC_ISR_2[1]
 365  0082  0AB7        	sub a,183
 365  0083  3D0A        	sz z
 365  0084  2800     R  	jmp _L57
 365  0085  0A01        	sub a,(184)-(183)
 365  0086  3D0A        	sz z
 365  0087  2800     R  	jmp _L58
 365  0088  0700     R  	mov a,_IIC_ISR_2[1]
 365  0089  0AB9        	sub a,185
 365  008A  3D0A        	sz z
 365  008B  2800     R  	jmp _L59
 365  008C  0A01        	sub a,(186)-(185)
 365  008D  3D0A        	sz z
 365  008E  2800     R  	jmp _L60
 365  008F  0700     R  	mov a,_IIC_ISR_2[1]
 365  0090  0ABB        	sub a,187
 365  0091  3D0A        	sz z
 365  0092  2800     R  	jmp _L61
 365  0093  0A06        	sub a,(193)-(187)
 365  0094  3D0A        	sz z
文件：USER_PROGRAM.C 编译器版本 HGASM 0202 页次11

 365  0095  2800     R  	jmp _L62
 365  0096  0700     R  	mov a,_IIC_ISR_2[1]
 365  0097  0AD1        	sub a,209
 365  0098  3D0A        	sz z
 365  0099  2800     R  	jmp _L63
 365  009A  0A10        	sub a,(225)-(209)
 365  009B  3D0A        	sz z
 365  009C  2800     R  	jmp _L64
 365  009D  0700     R  	mov a,_IIC_ISR_2[1]
 365  009E  0AF1        	sub a,241
 365  009F  3D0A        	sz z
 365  00A0  2800     R  	jmp _L65
 365  00A1  1600     R  	siza _IIC_ISR_2[1]
 365  00A2  2800     R  	jmp _L79
 411  00A3              #line 411 "D:\Git_project\Touch-Slave\USER_PROGRAM\USER_PROGRAM.C"
 411  00A3  0100     R  	cpla _I2C[5]
 411  00A4  0080     R  	mov _IIC_ISR_2[0],a
 411  00A5  2800     R  	jmp _L67
 411  00A6              _L49:
 369  00A6              #line 369 "D:\Git_project\Touch-Slave\USER_PROGRAM\USER_PROGRAM.C"
 369  00A6  0700     E  	mov a,_GLOBE_VARIES[1]
 369  00A7  0080     R  	mov _IIC_ISR_2[0],a
 369  00A8  2800     R  	jmp _L67
 369  00A9              _L50:
 370  00A9              #line 370 "D:\Git_project\Touch-Slave\USER_PROGRAM\USER_PROGRAM.C"
 370  00A9  0700     E  	mov a,_GLOBE_VARIES[2]
 370  00AA  0080     R  	mov _IIC_ISR_2[0],a
 370  00AB  2800     R  	jmp _L67
 370  00AC              _L51:
 373  00AC              #line 373 "D:\Git_project\Touch-Slave\USER_PROGRAM\USER_PROGRAM.C"
 373  00AC  0700     E  	mov a,_GLOBE_VARIES[4]
 373  00AD  0080     R  	mov _IIC_ISR_2[0],a
 373  00AE  2800     R  	jmp _L67
 373  00AF              _L52:
 374  00AF              #line 374 "D:\Git_project\Touch-Slave\USER_PROGRAM\USER_PROGRAM.C"
 374  00AF  0700     E  	mov a,_GLOBE_VARIES[5]
 374  00B0  0080     R  	mov _IIC_ISR_2[0],a
 374  00B1  2800     R  	jmp _L67
 374  00B2              _L53:
 375  00B2              #line 375 "D:\Git_project\Touch-Slave\USER_PROGRAM\USER_PROGRAM.C"
 375  00B2  0700     E  	mov a,_GLOBE_VARIES[6]
 375  00B3  0080     R  	mov _IIC_ISR_2[0],a
 375  00B4  2800     R  	jmp _L67
 375  00B5              _L54:
 376  00B5              #line 376 "D:\Git_project\Touch-Slave\USER_PROGRAM\USER_PROGRAM.C"
 376  00B5  0700     E  	mov a,_GLOBE_VARIES[7]
 376  00B6  0080     R  	mov _IIC_ISR_2[0],a
 376  00B7  2800     R  	jmp _L67
 376  00B8              _L55:
 377  00B8              #line 377 "D:\Git_project\Touch-Slave\USER_PROGRAM\USER_PROGRAM.C"
 377  00B8  0700     E  	mov a,_GLOBE_VARIES[8]
 377  00B9  0080     R  	mov _IIC_ISR_2[0],a
 377  00BA  2800     R  	jmp _L67
 377  00BB              _L56:
 378  00BB              #line 378 "D:\Git_project\Touch-Slave\USER_PROGRAM\USER_PROGRAM.C"
 378  00BB  0700     E  	mov a,_GLOBE_VARIES[9]
 378  00BC  0080     R  	mov _IIC_ISR_2[0],a
 378  00BD  2800     R  	jmp _L67
 378  00BE              _L57:
 379  00BE              #line 379 "D:\Git_project\Touch-Slave\USER_PROGRAM\USER_PROGRAM.C"
文件：USER_PROGRAM.C 编译器版本 HGASM 0202 页次12

 379  00BE  0700     E  	mov a,_GLOBE_VARIES[10]
 379  00BF  0080     R  	mov _IIC_ISR_2[0],a
 379  00C0  2800     R  	jmp _L67
 379  00C1              _L58:
 383  00C1              #line 383 "D:\Git_project\Touch-Slave\USER_PROGRAM\USER_PROGRAM.C"
 383  00C1  0700     E  	mov a,_GLOBE_VARIES[11]
 383  00C2  0080     R  	mov _IIC_ISR_2[0],a
 383  00C3  2800     R  	jmp _L67
 383  00C4              _L59:
 384  00C4              #line 384 "D:\Git_project\Touch-Slave\USER_PROGRAM\USER_PROGRAM.C"
 384  00C4  0700     E  	mov a,_GLOBE_VARIES[12]
 384  00C5  0080     R  	mov _IIC_ISR_2[0],a
 384  00C6  2800     R  	jmp _L67
 384  00C7              _L60:
 385  00C7              #line 385 "D:\Git_project\Touch-Slave\USER_PROGRAM\USER_PROGRAM.C"
 385  00C7  0700     E  	mov a,_GLOBE_VARIES[13]
 385  00C8  0080     R  	mov _IIC_ISR_2[0],a
 385  00C9  2800     R  	jmp _L67
 385  00CA              _L61:
 386  00CA              #line 386 "D:\Git_project\Touch-Slave\USER_PROGRAM\USER_PROGRAM.C"
 386  00CA  0700     E  	mov a,_GLOBE_VARIES[14]
 386  00CB  0080     R  	mov _IIC_ISR_2[0],a
 386  00CC  2800     R  	jmp _L67
 386  00CD              _L62:
 398  00CD              #line 398 "D:\Git_project\Touch-Slave\USER_PROGRAM\USER_PROGRAM.C"
 398  00CD  0700     E  	mov a,_KEY_IO_SEL[1]
 398  00CE  0080     R  	mov _IIC_ISR_2[0],a
 398  00CF  2800     R  	jmp _L67
 398  00D0              _L63:
 401  00D0              #line 401 "D:\Git_project\Touch-Slave\USER_PROGRAM\USER_PROGRAM.C"
 401  00D0  0700     R  	mov a,_MCU_INF[1]
 401  00D1  0080     R  	mov _IIC_ISR_2[0],a
 401  00D2  2800     R  	jmp _L67
 401  00D3              _L64:
 404  00D3              #line 404 "D:\Git_project\Touch-Slave\USER_PROGRAM\USER_PROGRAM.C"
 404  00D3  0700     E  	mov a,_KEY_DATA[1]
 404  00D4  0080     R  	mov _IIC_ISR_2[0],a
 404  00D5  2800     R  	jmp _L67
 404  00D6              _L65:
 409  00D6              #line 409 "D:\Git_project\Touch-Slave\USER_PROGRAM\USER_PROGRAM.C"
 409  00D6  0700     R  	mov a,_SYS_INF[1]
 409  00D7  0080     R  	mov _IIC_ISR_2[0],a
 409  00D8  2800     R  	jmp _L67
 409  00D9              _L79:
 413  00D9              #line 413 "D:\Git_project\Touch-Slave\USER_PROGRAM\USER_PROGRAM.C"
 413  00D9  0FAA        	mov a,170
 413  00DA  0080     R  	mov _IIC_ISR_2[0],a
 413  00DB              _L67:
 416  00DB              #line 416 "D:\Git_project\Touch-Slave\USER_PROGRAM\USER_PROGRAM.C"
 416  00DB  0700     R  	mov a,_IIC_ISR_2[0]
 416  00DC  00A6        	mov [38],a
 418  00DD              #line 418 "D:\Git_project\Touch-Slave\USER_PROGRAM\USER_PROGRAM.C"
 418  00DD  0700     R  	mov a,_IIC_ISR_2[0]
 418  00DE  0380     R  	addm a,_I2C[5]
 418  00DF              _L84:
 420  00DF              #line 420 "D:\Git_project\Touch-Slave\USER_PROGRAM\USER_PROGRAM.C"
 420  00DF  1480     R  	inc _I2C[2]
 421  00E0              #line 421 "D:\Git_project\Touch-Slave\USER_PROGRAM\USER_PROGRAM.C"
 421  00E0  0700     R  	mov a,_I2C[2]
 421  00E1  0200     R  	sub a,_I2C[1]
文件：USER_PROGRAM.C 编译器版本 HGASM 0202 页次13

 421  00E2  380A        	snz c
 421  00E3  2800     R  	jmp _L31
 422  00E4              #line 422 "D:\Git_project\Touch-Slave\USER_PROGRAM\USER_PROGRAM.C"
 422  00E4  1F80     R  	set _I2C[2]
 422  00E5  2800     R  	jmp _L31
 422  00E6              _L46:
 428  00E6              #line 428 "D:\Git_project\Touch-Slave\USER_PROGRAM\USER_PROGRAM.C"
 428  00E6  0726        	mov a,[38]
 428  00E7  0080     R  	mov _IIC_ISR_2[0],a
 429  00E8              #line 429 "D:\Git_project\Touch-Slave\USER_PROGRAM\USER_PROGRAM.C"
 429  00E8  35A5        	clr [37].3
 431  00E9              #line 431 "D:\Git_project\Touch-Slave\USER_PROGRAM\USER_PROGRAM.C"
 431  00E9  1080     R  	sz _I2C[3]
 431  00EA  2800     R  	jmp _L69
 435  00EB              #line 435 "D:\Git_project\Touch-Slave\USER_PROGRAM\USER_PROGRAM.C"
 435  00EB  0700     R  	mov a,_IIC_ISR_2[0]
 435  00EC  0EF0        	and a,240
 435  00ED  0080     R  	mov _I2C[0],a
 437  00EE              #line 437 "D:\Git_project\Touch-Slave\USER_PROGRAM\USER_PROGRAM.C"
 437  00EE  0700     R  	mov a,_I2C[0]
 437  00EF  0080     R  	mov _IIC_ISR_2[1],a
 437  00F0  0700     R  	mov a,_IIC_ISR_2[1]
 437  00F1  0AB0        	sub a,176
 437  00F2  3D0A        	sz z
 437  00F3  2800     R  	jmp _L71
 437  00F4  0A10        	sub a,(192)-(176)
 437  00F5  3D0A        	sz z
 437  00F6  2800     R  	jmp _L72
 437  00F7  0700     R  	mov a,_IIC_ISR_2[1]
 437  00F8  0AD0        	sub a,208
 437  00F9  3D0A        	sz z
 437  00FA  2800     R  	jmp _L73
 437  00FB  0A10        	sub a,(224)-(208)
 437  00FC  3D0A        	sz z
 437  00FD  2800     R  	jmp _L74
 437  00FE  0700     R  	mov a,_IIC_ISR_2[1]
 437  00FF  0AF0        	sub a,240
 437  0100  390A        	snz z
 437  0101  2800     R  	jmp _L80
 444  0102              #line 444 "D:\Git_project\Touch-Slave\USER_PROGRAM\USER_PROGRAM.C"
 444  0102  0F02        	mov a,2
 444  0103  0080     R  	mov _I2C[1],a
 444  0104  0FF0        	mov a,240
 444  0105  0080     R  	mov _I2C[2],a
 444  0106  2800     R  	jmp _L76
 444  0107              _L71:
 440  0107              #line 440 "D:\Git_project\Touch-Slave\USER_PROGRAM\USER_PROGRAM.C"
 440  0107  0F0C        	mov a,12
 440  0108  0080     R  	mov _I2C[1],a
 440  0109  0FB0        	mov a,176
 440  010A  0080     R  	mov _I2C[2],a
 440  010B  2800     R  	jmp _L76
 440  010C              _L72:
 441  010C              #line 441 "D:\Git_project\Touch-Slave\USER_PROGRAM\USER_PROGRAM.C"
 441  010C  0F02        	mov a,2
 441  010D  0080     R  	mov _I2C[1],a
 441  010E  0FC0        	mov a,192
 441  010F  0080     R  	mov _I2C[2],a
 441  0110  2800     R  	jmp _L76
 441  0111              _L73:
文件：USER_PROGRAM.C 编译器版本 HGASM 0202 页次14

 442  0111              #line 442 "D:\Git_project\Touch-Slave\USER_PROGRAM\USER_PROGRAM.C"
 442  0111  0F02        	mov a,2
 442  0112  0080     R  	mov _I2C[1],a
 442  0113  0FD0        	mov a,208
 442  0114  0080     R  	mov _I2C[2],a
 442  0115  2800     R  	jmp _L76
 442  0116              _L74:
 443  0116              #line 443 "D:\Git_project\Touch-Slave\USER_PROGRAM\USER_PROGRAM.C"
 443  0116  0F02        	mov a,2
 443  0117  0080     R  	mov _I2C[1],a
 443  0118  0FE0        	mov a,224
 443  0119  0080     R  	mov _I2C[2],a
 443  011A  2800     R  	jmp _L76
 443  011B              _L80:
 445  011B              #line 445 "D:\Git_project\Touch-Slave\USER_PROGRAM\USER_PROGRAM.C"
 445  011B  0F03        	mov a,3
 445  011C  0080     R  	mov _I2C[1],a
 445  011D  0FA0        	mov a,160
 445  011E  0080     R  	mov _I2C[2],a
 445  011F              _L76:
 447  011F              #line 447 "D:\Git_project\Touch-Slave\USER_PROGRAM\USER_PROGRAM.C"
 447  011F  1F00     R  	clr _I2C[5]
 447  0120  2800     R  	jmp _L81
 447  0121              _L69:
 451  0121              #line 451 "D:\Git_project\Touch-Slave\USER_PROGRAM\USER_PROGRAM.C"
 451  0121  0700     R  	mov a,_I2C[1]
 451  0122  0200     R  	sub a,_I2C[3]
 451  0123  380A        	snz c
 451  0124  2800     R  	jmp _L77
 453  0125              #line 453 "D:\Git_project\Touch-Slave\USER_PROGRAM\USER_PROGRAM.C"
 453  0125  0F00     R  	mov a,low (offset _I2C_Data-1)
 453  0126  0300     R  	add a,_I2C[3]
 453  0127  0083        	mov mp,a
 453  0128  0F00     R  	mov a,high (offset _I2C_Data-1)
 453  0129  1F01        	clr sbp
 453  012A  1381        	adcm a,sbp
 453  012B  0701        	mov a,sbp
 453  012C  0084        	mov bp,a
 453  012D  0700     R  	mov a,_IIC_ISR_2[0]
 453  012E  0082        	mov ir,a
 454  012F              #line 454 "D:\Git_project\Touch-Slave\USER_PROGRAM\USER_PROGRAM.C"
 454  012F  0700     R  	mov a,_IIC_ISR_2[0]
 454  0130  0380     R  	addm a,_I2C[5]
 454  0131  2800     R  	jmp _L81
 454  0132              _L77:
 459  0132              #line 459 "D:\Git_project\Touch-Slave\USER_PROGRAM\USER_PROGRAM.C"
 459  0132  0700     R  	mov a,_IIC_ISR_2[0]
 459  0133  0080     R  	mov _I2C[4],a
 460  0134              #line 460 "D:\Git_project\Touch-Slave\USER_PROGRAM\USER_PROGRAM.C"
 460  0134  3000     R  	set _FLAG[0].1
 460  0135              _L81:
 461  0135              #line 461 "D:\Git_project\Touch-Slave\USER_PROGRAM\USER_PROGRAM.C"
 461  0135  1480     R  	inc _I2C[3]
 461  0136              _L31:
 461  0136  0700     E  	mov a,r2
 461  0137  0084        	mov bp,a
 461  0138  0700     E  	mov a,r3
 461  0139  008A        	mov status,a
 461  013A  0700     E  	mov a,r4
 461  013B  0083        	mov mp,a
文件：USER_PROGRAM.C 编译器版本 HGASM 0202 页次15

 461  013C  0700     E  	mov a,r5
 461  013D  0081        	mov sbp,a
 461  013E  0700     E  	mov a,r1
 461  013F  0004        	reti
 461  0140              _IIC_ISR endp
 461  0140              
 461  0140              #line 461 "D:\Git_project\Touch-Slave\USER_PROGRAM\USER_PROGRAM.C"
 461  0140              #pragma debug scope 1 1
 461  0140              public _ISR_INT
 461  0140              #pragma debug scope 9 1
 474  0140              #line 474 "D:\Git_project\Touch-Slave\USER_PROGRAM\USER_PROGRAM.C"
 474  0000              @ISR_INT_code .section at 4 'code'
 474  0000  0080     E  	mov r1,a
 474  0001  070A        	mov a,status
 474  0002  0080     E  	mov r2,a
 474  0003  2800     R  	jmp _ISR_INT
 474  0004              #pragma debug scope 1 1
 474  0004              @dummy4 endp
 474  0004              #pragma debug scope 10 1
 474  0000              _ISR_INT .section 'code'
 474  0000              _ISR_INT proc
 475  0000              #line 475 "D:\Git_project\Touch-Slave\USER_PROGRAM\USER_PROGRAM.C"
 475  0000  360E        	clr [14].4
 476  0001              #line 476 "D:\Git_project\Touch-Slave\USER_PROGRAM\USER_PROGRAM.C"
 476  0001  0F7F        	mov a,127
 476  0002  0080     E  	mov _STANDBY_TIME[0],a
 477  0003              #line 477 "D:\Git_project\Touch-Slave\USER_PROGRAM\USER_PROGRAM.C"
 477  0003              ;# 477 "D:\Git_project\Touch-Slave\USER_PROGRAM\USER_PROGRAM.C" 1
 477  0003              	IF 1000>263690
 477  0003              ;# 477 "D:\Git_project\Touch-Slave\USER_PROGRAM\USER_PROGRAM.C" 1
 477  0003              	ERRMESSAGE 'the value 1000of the argument exceeds the maxinum 263690'
 477  0003              	ENDIF
 477  0003              ;# 477 "D:\Git_project\Touch-Slave\USER_PROGRAM\USER_PROGRAM.C" 1
 477  0003              	IF 1000<0
 477  0003              ;# 477 "D:\Git_project\Touch-Slave\USER_PROGRAM\USER_PROGRAM.C" 1
 477  0003              	ERRMESSAGE 'the value 1000 of the argument exceeds the mininum 0'
 477  0003              	ENDIF
 477  0003              ;# 477 "D:\Git_project\Touch-Slave\USER_PROGRAM\USER_PROGRAM.C" 1
 477  0003              	IF 1000==0
 477  0003              ;# 477 "D:\Git_project\Touch-Slave\USER_PROGRAM\USER_PROGRAM.C" 1
 477  0003              	JMP $
 477  0003              	ENDIF
 477  0003              ;# 477 "D:\Git_project\Touch-Slave\USER_PROGRAM\USER_PROGRAM.C" 1
 477  0003              	IF 1000==1
 477  0003              ;# 477 "D:\Git_project\Touch-Slave\USER_PROGRAM\USER_PROGRAM.C" 1
 477  0003              	NOP
 477  0003              	ENDIF
 477  0003              ;# 477 "D:\Git_project\Touch-Slave\USER_PROGRAM\USER_PROGRAM.C" 1
 477  0003              	IF 1000==2
 477  0003              ;# 477 "D:\Git_project\Touch-Slave\USER_PROGRAM\USER_PROGRAM.C" 1
 477  0003              	NOP
 477  0003              ;# 477 "D:\Git_project\Touch-Slave\USER_PROGRAM\USER_PROGRAM.C" 1
 477  0003              	NOP
 477  0003              	ENDIF
 477  0003              ;# 477 "D:\Git_project\Touch-Slave\USER_PROGRAM\USER_PROGRAM.C" 1
 477  0003              	IF 1000==3
 477  0003              ;# 477 "D:\Git_project\Touch-Slave\USER_PROGRAM\USER_PROGRAM.C" 1
 477  0003              	NOP
 477  0003              ;# 477 "D:\Git_project\Touch-Slave\USER_PROGRAM\USER_PROGRAM.C" 1
 477  0003              	NOP
文件：USER_PROGRAM.C 编译器版本 HGASM 0202 页次16

 477  0003              ;# 477 "D:\Git_project\Touch-Slave\USER_PROGRAM\USER_PROGRAM.C" 1
 477  0003              	NOP
 477  0003              	ENDIF
 477  0003              ;# 477 "D:\Git_project\Touch-Slave\USER_PROGRAM\USER_PROGRAM.C" 1
 477  0003              	IF (1000<8) AND (1000>3)
 477  0003              ;# 477 "D:\Git_project\Touch-Slave\USER_PROGRAM\USER_PROGRAM.C" 1
 477  0003              	CALL __DELAY3 + 7 -1000
 477  0003              	ENDIF
 477  0003              ;# 477 "D:\Git_project\Touch-Slave\USER_PROGRAM\USER_PROGRAM.C" 1
 477  0003              	IF (1000< 0404h) AND (1000>7)
 477  0003              ;# 477 "D:\Git_project\Touch-Slave\USER_PROGRAM\USER_PROGRAM.C" 1
 477  0003  0FF9        	MOV A,1000/4-1
 477  0004              ;# 477 "D:\Git_project\Touch-Slave\USER_PROGRAM\USER_PROGRAM.C" 1
 477  0004  2000     E  	CALL __DELAYX3 + 3 -(1000 MOD 4)
 477  0005              	ENDIF
 477  0005              ;# 477 "D:\Git_project\Touch-Slave\USER_PROGRAM\USER_PROGRAM.C" 1
 477  0005              	IF (1000< 0x40B) AND (1000> 0403h)
 477  0005              ;# 477 "D:\Git_project\Touch-Slave\USER_PROGRAM\USER_PROGRAM.C" 1
 477  0005              	MOV A,0 
 477  0005              ;# 477 "D:\Git_project\Touch-Slave\USER_PROGRAM\USER_PROGRAM.C" 1
 477  0005              	CALL __DELAYX6 + 0x40a -1000
 477  0005              	ENDIF
 477  0005              ;# 477 "D:\Git_project\Touch-Slave\USER_PROGRAM\USER_PROGRAM.C" 1
 477  0005              	IF (1000 >= 0x40b) AND ((((1000-9)%0402h)/4+1)>256)
 477  0005              ;# 477 "D:\Git_project\Touch-Slave\USER_PROGRAM\USER_PROGRAM.C" 1
 477  0005              	MOV A,(1000-9)/0402h
 477  0005              ;# 477 "D:\Git_project\Touch-Slave\USER_PROGRAM\USER_PROGRAM.C" 1
 477  0005              	MOV _builtin_holtek_delay_2,A
 477  0005              ;# 477 "D:\Git_project\Touch-Slave\USER_PROGRAM\USER_PROGRAM.C" 1
 477  0005              	MOV A,0
 477  0005              ;# 477 "D:\Git_project\Touch-Slave\USER_PROGRAM\USER_PROGRAM.C" 1
 477  0005              	CALL __DELAYY5 +5- (((1000-9)%0402h)%6)
 477  0005              	ENDIF
 477  0005              ;# 477 "D:\Git_project\Touch-Slave\USER_PROGRAM\USER_PROGRAM.C" 1
 477  0005              	IF (1000 >= 0x40b) AND ((((1000-9)%0402h)/4+1)<=256)
 477  0005              ;# 477 "D:\Git_project\Touch-Slave\USER_PROGRAM\USER_PROGRAM.C" 1
 477  0005              	MOV A,(1000-9)/0402h
 477  0005              ;# 477 "D:\Git_project\Touch-Slave\USER_PROGRAM\USER_PROGRAM.C" 1
 477  0005              	MOV _builtin_holtek_delay_2,A
 477  0005              ;# 477 "D:\Git_project\Touch-Slave\USER_PROGRAM\USER_PROGRAM.C" 1
 477  0005              	MOV A,((1000-9)%0402h)/4+1
 477  0005              ;# 477 "D:\Git_project\Touch-Slave\USER_PROGRAM\USER_PROGRAM.C" 1
 477  0005              	CALL __DELAYY3 +3-(((1000-9)%0402h)%4)
 477  0005              	ENDIF
 477  0005  0700     E  	mov a,r2
 477  0006  008A        	mov status,a
 477  0007  0700     E  	mov a,r1
 477  0008  0004        	reti
 477  0009              _ISR_INT endp
 477  0009              
 477  0009              #line 477 "D:\Git_project\Touch-Slave\USER_PROGRAM\USER_PROGRAM.C"
 477  0009              #pragma debug scope 1 1
  72  0009              #line 72 "D:\Git_project\Touch-Slave\USER_PROGRAM\USER_PROGRAM.C"
  72  0009              public _SYS_INF
  72  0000              @HCCINIT0 .section 'data'
  72  0000  0003[       _SYS_INF	db 3 dup(0)
            00
            ]
  72  0003              #pragma debug array 42 8 3 1
  72  0003              #pragma debug array 42 8 3 1
文件：USER_PROGRAM.C 编译器版本 HGASM 0202 页次17

  72  0003              #pragma debug variable 42 1 _SYS_INF "SYS_INF"
  72  0003              
  72  0000              @HCCINIT .section 'data'
  65  0000              #line 65 "D:\Git_project\Touch-Slave\USER_PROGRAM\USER_PROGRAM.C"
  65  0000              public _MCU_INF
  65  0003              @HCCINIT0 .section 'data'
  65  0003  0003[       _MCU_INF	db 3 dup(0)
            00
            ]
  65  0006              #pragma debug variable 42 1 _MCU_INF "MCU_INF"
  65  0006              
  65  0000              @HCCINIT .section 'data'
  63  0000              #line 63 "D:\Git_project\Touch-Slave\USER_PROGRAM\USER_PROGRAM.C"
  63  0000              public _I2C_Data
  63  0006              @HCCINIT0 .section 'data'
  63  0006  000C[       _I2C_Data	db 12 dup(0)
            00
            ]
  63  0012              #pragma debug array 43 8 12 1
  63  0012              #pragma debug array 43 8 12 1
  63  0012              #pragma debug variable 43 1 _I2C_Data "I2C_Data"
  63  0012              
  63  0000              @HCCINIT .section 'data'
  61  0000              #line 61 "D:\Git_project\Touch-Slave\USER_PROGRAM\USER_PROGRAM.C"
  61  0000              public _I2C
  61  0012              @HCCINIT0 .section 'data'
  61  0012  0006[       _I2C	db 6 dup(0)
            00
            ]
  61  0018              #pragma debug struct_end
  61  0018              #pragma debug struct_end
  61  0018              #pragma debug variable 44 1 _I2C "I2C"
  61  0018              
  61  0000              @HCCINIT .section 'data'
  43  0000              #line 43 "D:\Git_project\Touch-Slave\USER_PROGRAM\USER_PROGRAM.C"
  43  0000              public _FLAG
  43  0018              @HCCINIT0 .section 'data'
  43  0018              _FLAG	db 0
  43  0019              #pragma debug struct_end
  43  0019              #pragma debug struct_end
  43  0019              #pragma debug union_end
  43  0019              #pragma debug union_end
  43  0019              #pragma debug variable 46 1 _FLAG "FLAG"
  43  0019              
  43  0000              @HCCINIT .section 'data'
  43  0000              public _IC_PAGE_HEAD
  43  0000              @crom	.section 'crom'
  38  0000              #line 38 "D:\Git_project\Touch-Slave\USER_PROGRAM\USER_PROGRAM.C"
  38  0000              @crom	.section	'crom'
  38  0000              _IC_PAGE_HEAD:
  38  0000              #pragma debug array 47 8 6 1
  38  0000              #pragma debug array 47 8 6 1
  38  0000              #pragma debug variable 47 1 _IC_PAGE_HEAD "IC_PAGE_HEAD"
  38  0000              	db -96
  38  0001              	db -80
  38  0001              	db -64
  38  0002              	db -48
  38  0002              	db -32
  38  0003              	db -16
  38  0003              public _IC_PAGE_SIZS
文件：USER_PROGRAM.C 编译器版本 HGASM 0202 页次18

  15  0003              #line 15 "D:\Git_project\Touch-Slave\USER_PROGRAM\USER_PROGRAM.C"
  15  0003              @crom	.section	'crom'
  15  0003              _IC_PAGE_SIZS:
  15  0003              #pragma debug variable 47 1 _IC_PAGE_SIZS "IC_PAGE_SIZS"
  15  0003              	db 3
  15  0004              	db 12
  15  0004              	db 2
  15  0005              	db 2
  15  0005              	db 2
  15  0006              	db 2
  15  0006              public _SleepTime

  66  0006              #line 66 "D:\Git_project\Touch-Slave\USER_PROGRAM\TOUCH_SLAVE_CONF.H"
  66  0006              @crom	.section	'crom'
  66  0006              _SleepTime:
  66  0006              #pragma debug variable 8 1 _SleepTime "SleepTime"
  66  0006              	db 78
  66  0007              public _SysVersion
  65  0007              #line 65 "D:\Git_project\Touch-Slave\USER_PROGRAM\TOUCH_SLAVE_CONF.H"
  65  0007              @crom	.section	'crom'
  65  0007              _SysVersion:
  65  0007              #pragma debug variable 8 1 _SysVersion "SysVersion"
  65  0007              	db 24
  65  0007              public _I2C_Address
  64  0007              #line 64 "D:\Git_project\Touch-Slave\USER_PROGRAM\TOUCH_SLAVE_CONF.H"
  64  0007              @crom	.section	'crom'
  64  0007              _I2C_Address:
  64  0007              #pragma debug variable 8 1 _I2C_Address "I2C_Address"
  64  0007              	db 40
  64  0008              #pragma debug variable 8 1 ___acc "__acc" 1
  64  0008              #pragma debug struct_end
  64  0008              #pragma debug struct_end
  64  0008              #pragma debug union_end
  64  0008              #pragma debug union_end
  64  0008              #pragma debug variable 49 1 ___integ "__integ" 1
  64  0008              #pragma debug struct_end
  64  0008              #pragma debug struct_end
  64  0008              #pragma debug union_end
  64  0008              #pragma debug union_end
  64  0008              #pragma debug variable 51 1 ___intc0 "__intc0" 1
  64  0008              #pragma debug struct_end
  64  0008              #pragma debug struct_end
  64  0008              #pragma debug union_end
  64  0008              #pragma debug union_end
  64  0008              #pragma debug variable 53 1 ___intc1 "__intc1" 1
  64  0008              #pragma debug struct_end
  64  0008              #pragma debug struct_end
  64  0008              #pragma debug union_end
  64  0008              #pragma debug union_end
  64  0008              #pragma debug variable 55 1 ___pa "__pa" 1
  64  0008              #pragma debug struct_end
  64  0008              #pragma debug struct_end
  64  0008              #pragma debug union_end
  64  0008              #pragma debug union_end
  64  0008              #pragma debug variable 57 1 ___pac "__pac" 1
  64  0008              #pragma debug struct_end
  64  0008              #pragma debug struct_end
  64  0008              #pragma debug union_end
  64  0008              #pragma debug union_end
  64  0008              #pragma debug variable 59 1 ___papu "__papu" 1
文件：TOUCH_SLAVE_CONF.H 编译器版本 HGASM 0202 页次19

  64  0008              #pragma debug struct_end
  64  0008              #pragma debug struct_end
  64  0008              #pragma debug union_end
  64  0008              #pragma debug union_end
  64  0008              #pragma debug variable 61 1 ___pawu "__pawu" 1
  64  0008              #pragma debug struct_end
  64  0008              #pragma debug struct_end
  64  0008              #pragma debug union_end
  64  0008              #pragma debug union_end
  64  0008              #pragma debug variable 63 1 ___wdtc "__wdtc" 1
  64  0008              #pragma debug struct_end
  64  0008              #pragma debug struct_end
  64  0008              #pragma debug union_end
  64  0008              #pragma debug union_end
  64  0008              #pragma debug variable 65 1 ___i2ctoc "__i2ctoc" 1
  64  0008              #pragma debug struct_end
  64  0008              #pragma debug struct_end
  64  0008              #pragma debug union_end
  64  0008              #pragma debug union_end
  64  0008              #pragma debug variable 67 1 ___simc0 "__simc0" 1
  64  0008              #pragma debug struct_end
  64  0008              #pragma debug struct_end
  64  0008              #pragma debug union_end
  64  0008              #pragma debug union_end
  64  0008              #pragma debug variable 69 1 ___simc1 "__simc1" 1
  64  0008              #pragma debug variable 8 1 ___simd "__simd" 1
  64  0008              #pragma debug variable 8 1 ___sima "__sima" 1
  64  0008              
  64  0008              ; output external variables
  64  0008              extern _STANDBY_TIME:byte
  64  0008              extern _KEY_DATA:byte
  64  0008              extern _GLOBE_VARIES:byte
  64  0008              extern _KEY_IO_SEL:byte
  64  0008              extern r1:byte
  64  0008              extern r2:byte
  64  0008              extern r3:byte
  64  0008              extern r4:byte
  64  0008              extern r5:byte
  64  0008              extern _GET_KEY_BITMAP:near
  64  0008              
  64  0008              ; 
  64  0008              ; Generated by holtek-gcc v3.18, Mon Mar 12 14:18:20 2018
  64  0008              ; Rebuild 126
  64  0008              ; end of file


        0 Errors, 0