文件：TOUCH_SLAVE_CONF.H 编译器版本 HGASM 0202 页次1


   1  0000              ; Generated by holtek-gcc v3.17, Tue Feb 13 16:50:19 2018
   2  0000              ; 
   3  0000              ; Configuration:
   4  0000              ;       without long instruction
   5  0000              ;       Single ROM, Multi-RAM
   6  0000              ;       bits_per_rom_unit:16
   7  0000              ;       with mp1
   8  0000              ;       with tbhp, address(0x9)
   9  0000              ;          Use tabrd-const
  10  0000              ;       
  11  0000              ;       
  12  0000              ;       
  13  0000              ; use 'tabrdc' instead of 'tabrd'
  14  0000              ;       
  15  0000              
  16  0000              #pragma translator "holtek-gcc 4.6.4" "3.17" "build 20130711"
  17  0000              ; Rebuild 307
  18  0000              
  19  0000              ir equ [2]
  20  0000              mp equ [3]
  21  0000              sbp equ [1]
  22  0000              acc equ [5]
  23  0000              bp equ [4]
  24  0000              tblp equ [7]
  25  0000              tbhp equ [9]
  26  0000              status equ [10]
  27  0000              c equ [10].0
  28  0000              ac equ [10].1
  29  0000              z equ [10].2
  30  0000              ov equ [10].3
  31  0000              intc equ [11]
  32  0000              
  33  0000              extern ra:byte
  34  0000              extern rb:byte
  35  0000              extern rc:byte
  36  0000              extern rd:byte
  37  0000              extern re:byte
  38  0000              extern rf:byte
  39  0000              extern rg:byte
  40  0000              extern rh:byte
  41  0000              extern _Crom2Prom:near
  42  0000              extern _Crom2PromNext:near
  43  0000              
  44  0000              RAMBANK 0 @HCCINIT, @HCCINIT0
  45  0000              
  46  0000              RAMBANK 0 @BITDATASEC, @BITDATASEC1
  47  0000              @HCCINIT	.section 'data'
  48  0000              @HCCINIT0	.section 'data'
  49  0000              @BITDATASEC	 .section 'data'
  50  0000              @BITDATASEC1	 .section 'data'
  51  0000              
  52  0000              #pragma debug scope 1 1
  53  0000              	extern __DELAY3:near
  54  0000              	extern __DELAYX3:near
  55  0000              	extern __DELAYX6:near
  56  0000              	extern __DELAYY5:near
  57  0000              	extern __DELAYY3:near
  58  0000              	extern _builtin_holtek_delay_2:byte
  59  0000              public _DATA_LIST_UPDATA
文件：USER_PROGRAM.ASM 编译器版本 HGASM 0202 页次2

  60  0000              #pragma debug scope 2 1

  72  0000              #line 72 "C:\Users\my asus\Desktop\Git_project\Touch-Slave\USER_PROGRAM\USER_PROGRAM.C"
  72  0000              _DATA_LIST_UPDATA .section 'code'
  72  0000              _DATA_LIST_UPDATA proc
  72  0000  00              local _DATA_LIST_UPDATA_2 db 1 dup(?)	; 0,1
  75  0001              #line 75 "C:\Users\my asus\Desktop\Git_project\Touch-Slave\USER_PROGRAM\USER_PROGRAM.C"
  75  0000  0F00     R  	mov a,low offset _IC_PAGE_SIZS
  75  0001  0300     R  	add a,_I2C[0]
  75  0002  0083        	mov mp,a
  75  0003  0F00     R  	mov a,high offset _IC_PAGE_SIZS
  75  0004  1F01        	clr sbp
  75  0005  1381        	adcm a,sbp
  75  0006  2000     E  	call _Crom2Prom
  75  0007  0080     R  	mov _I2C[1],a
  77  0008              #line 77 "C:\Users\my asus\Desktop\Git_project\Touch-Slave\USER_PROGRAM\USER_PROGRAM.C"
  77  0008  0700     R  	mov a,_I2C[0]
  77  0009  0080     R  	mov _DATA_LIST_UPDATA_2[0],a
  77  000A  0700     R  	mov a,_DATA_LIST_UPDATA_2[0]
  77  000B  0A00        	sub a,0
  77  000C  3D0A        	sz z
  77  000D  2800     R  	jmp _L11
  77  000E  0A01        	sub a,(1)-(0)
  77  000F  3D0A        	sz z
  77  0010  2800     R  	jmp _L9
  77  0011              #line 77 "C:\Users\my asus\Desktop\Git_project\Touch-Slave\USER_PROGRAM\USER_PROGRAM.C"
  77  0011  0700     R  	mov a,_DATA_LIST_UPDATA_2[0]
  77  0012  0A02        	sub a,2
  77  0013  3D0A        	sz z
  77  0014  2800     R  	jmp _L5
  77  0015  0700     R  	mov a,_DATA_LIST_UPDATA_2[0]
  77  0016  0A03        	sub a,3
  77  0017  390A        	snz z
  77  0018  2800     R  	jmp _L10
  82  0019              #line 82 "C:\Users\my asus\Desktop\Git_project\Touch-Slave\USER_PROGRAM\USER_PROGRAM.C"
  82  0019  0F00     R  	mov a,low offset _MCU_INF
  82  001A  0080     E  	mov rb,a
  82  001B  0F00     R  	mov a,high offset _MCU_INF
  82  001C  0080     E  	mov rc,a
  82  001D  2800     R  	jmp _L4
  82  001E              _L5:
  81  001E              #line 81 "C:\Users\my asus\Desktop\Git_project\Touch-Slave\USER_PROGRAM\USER_PROGRAM.C"
  81  001E  0F00     E  	mov a,low offset _KEY_IO_SEL
  81  001F  0080     E  	mov rb,a
  81  0020  0F00     E  	mov a,high offset _KEY_IO_SEL
  81  0021  0080     E  	mov rc,a
  81  0022  2800     R  	jmp _L4
  81  0023              _L10:
  83  0023              #line 83 "C:\Users\my asus\Desktop\Git_project\Touch-Slave\USER_PROGRAM\USER_PROGRAM.C"
  83  0023  1F00     R  	clr _I2C[1]
  83  0024              _L11:
  83  0024  0F00     E  	mov a,low offset _GLOBE_VARIES
  83  0025  0080     E  	mov rb,a
  83  0026  0F00     E  	mov a,high offset _GLOBE_VARIES
  83  0027  0080     E  	mov rc,a
  83  0028  2800     R  	jmp _L4
  83  0029              _L9:
  80  0029              #line 80 "C:\Users\my asus\Desktop\Git_project\Touch-Slave\USER_PROGRAM\USER_PROGRAM.C"
  80  0029  0F00     E  	mov a,low (offset _GLOBE_VARIES+3)
  80  002A  0080     E  	mov rb,a
文件：USER_PROGRAM.C 编译器版本 HGASM 0202 页次3

  80  002B  0F00     E  	mov a,high (offset _GLOBE_VARIES+3)
  80  002C  0080     E  	mov rc,a
  80  002D              _L4:
  87  002D              #line 87 "C:\Users\my asus\Desktop\Git_project\Touch-Slave\USER_PROGRAM\USER_PROGRAM.C"
  87  002D  1F00     R  	clr _I2C[3]
  87  002E  2800     R  	jmp _L7
  87  002F              _L8:
  89  002F              #line 89 "C:\Users\my asus\Desktop\Git_project\Touch-Slave\USER_PROGRAM\USER_PROGRAM.C"
  89  002F  0F00     R  	mov a,low offset _I2C_Data
  89  0030  0300     R  	add a,_I2C[3]
  89  0031  0083        	mov mp,a
  89  0032  0F00     R  	mov a,high offset _I2C_Data
  89  0033  1F01        	clr sbp
  89  0034  1381        	adcm a,sbp
  89  0035  2000     E  	call _Crom2Prom
  89  0036  0080     E  	mov ra,a
  89  0037  0700     R  	mov a,_I2C[3]
  89  0038  0300     E  	add a,rb
  89  0039  0083        	mov mp,a
  89  003A  1F05        	clr acc
  89  003B  1300     E  	adc a,rc
  89  003C  0081        	mov sbp,a
  89  003D  0701        	mov a,sbp
  89  003E  0084        	mov bp,a
  89  003F  0700     E  	mov a,ra
  89  0040  0082        	mov ir,a
  87  0041              #line 87 "C:\Users\my asus\Desktop\Git_project\Touch-Slave\USER_PROGRAM\USER_PROGRAM.C"
  87  0041  1480     R  	inc _I2C[3]
  87  0042              _L7:
  87  0042  0700     R  	mov a,_I2C[3]
  87  0043  0200     R  	sub a,_I2C[1]
  87  0044  380A        	snz c
  87  0045  2800     R  	jmp _L8
  87  0046  0003        	ret
  87  0047              _DATA_LIST_UPDATA endp
  87  0047              #line 87 "C:\Users\my asus\Desktop\Git_project\Touch-Slave\USER_PROGRAM\USER_PROGRAM.C"
  87  0047              #pragma debug scope 1 1
  87  0047              public _I2C_LIST_INIT
  87  0047              #pragma debug scope 3 1
  96  0047              #line 96 "C:\Users\my asus\Desktop\Git_project\Touch-Slave\USER_PROGRAM\USER_PROGRAM.C"
  96  0000              _I2C_LIST_INIT .section 'code'
  96  0000              _I2C_LIST_INIT proc
  97  0000              #line 97 "C:\Users\my asus\Desktop\Git_project\Touch-Slave\USER_PROGRAM\USER_PROGRAM.C"
  97  0000  1F00     R  	clr _I2C[0]
  98  0001              #line 98 "C:\Users\my asus\Desktop\Git_project\Touch-Slave\USER_PROGRAM\USER_PROGRAM.C"
  98  0001  1F00     R  	clr _I2C[1]
  99  0002              #line 99 "C:\Users\my asus\Desktop\Git_project\Touch-Slave\USER_PROGRAM\USER_PROGRAM.C"
  99  0002  1F00     R  	clr _I2C[3]
 100  0003              #line 100 "C:\Users\my asus\Desktop\Git_project\Touch-Slave\USER_PROGRAM\USER_PROGRAM.C"
 100  0003  1F00     R  	clr _I2C[2]
 101  0004              #line 101 "C:\Users\my asus\Desktop\Git_project\Touch-Slave\USER_PROGRAM\USER_PROGRAM.C"
 101  0004  1F00     R  	clr _I2C[4]
 102  0005              #line 102 "C:\Users\my asus\Desktop\Git_project\Touch-Slave\USER_PROGRAM\USER_PROGRAM.C"
 102  0005  1F00     R  	clr _I2C[5]
 103  0006              #line 103 "C:\Users\my asus\Desktop\Git_project\Touch-Slave\USER_PROGRAM\USER_PROGRAM.C"
 103  0006  3400     R  	clr _FLAG[0].1
 104  0007              #line 104 "C:\Users\my asus\Desktop\Git_project\Touch-Slave\USER_PROGRAM\USER_PROGRAM.C"
 104  0007  3400     R  	clr _FLAG[0].0
 104  0008  0003        	ret
 104  0009              _I2C_LIST_INIT endp
文件：USER_PROGRAM.C 编译器版本 HGASM 0202 页次4

 104  0009              #line 104 "C:\Users\my asus\Desktop\Git_project\Touch-Slave\USER_PROGRAM\USER_PROGRAM.C"
 104  0009              #pragma debug scope 1 1
 104  0009              public _SYS_LIST_INIT
 104  0009              #pragma debug scope 4 1
 109  0009              #line 109 "C:\Users\my asus\Desktop\Git_project\Touch-Slave\USER_PROGRAM\USER_PROGRAM.C"
 109  0000              _SYS_LIST_INIT .section 'code'
 109  0000              _SYS_LIST_INIT proc
 110  0000              #line 110 "C:\Users\my asus\Desktop\Git_project\Touch-Slave\USER_PROGRAM\USER_PROGRAM.C"
 110  0000  0F0F        	mov a,15
 110  0001  0080     R  	mov _MCU_INF[0],a
 111  0002              #line 111 "C:\Users\my asus\Desktop\Git_project\Touch-Slave\USER_PROGRAM\USER_PROGRAM.C"
 111  0002  0F4E        	mov a,78
 111  0003  0080     R  	mov _MCU_INF[1],a
 113  0004              #line 113 "C:\Users\my asus\Desktop\Git_project\Touch-Slave\USER_PROGRAM\USER_PROGRAM.C"
 113  0004  0F0F        	mov a,15
 113  0005  0080     R  	mov _SYS_INF[0],a
 114  0006              #line 114 "C:\Users\my asus\Desktop\Git_project\Touch-Slave\USER_PROGRAM\USER_PROGRAM.C"
 114  0006  0F18        	mov a,24
 114  0007  0080     R  	mov _SYS_INF[1],a
 115  0008              #line 115 "C:\Users\my asus\Desktop\Git_project\Touch-Slave\USER_PROGRAM\USER_PROGRAM.C"
 115  0008  3000     R  	set _FLAG[0].0
 115  0009  0003        	ret
 115  000A              _SYS_LIST_INIT endp
 115  000A              #line 115 "C:\Users\my asus\Desktop\Git_project\Touch-Slave\USER_PROGRAM\USER_PROGRAM.C"
 115  000A              #pragma debug scope 1 1
 115  000A              ___pawu equ [23]
 115  000A              ___papu equ [22]
 115  000A              ___pa equ [20]
 115  000A              ___pac equ [21]
 115  000A              ___simc0 equ [36]
 115  000A              ___sima equ [39]
 115  000A              ___i2ctoc equ [35]
 115  000A              ___intc1 equ [15]
 115  000A              ___intc0 equ [14]
 115  000A              public _USER_PROGRAM_INITIAL
 115  000A              #pragma debug scope 5 1
 120  000A              #line 120 "C:\Users\my asus\Desktop\Git_project\Touch-Slave\USER_PROGRAM\USER_PROGRAM.C"
 120  0000              _USER_PROGRAM_INITIAL .section 'code'
 120  0000              _USER_PROGRAM_INITIAL proc
 123  0000              #line 123 "C:\Users\my asus\Desktop\Git_project\Touch-Slave\USER_PROGRAM\USER_PROGRAM.C"
 123  0000  1F17        	clr [23]
 124  0001              #line 124 "C:\Users\my asus\Desktop\Git_project\Touch-Slave\USER_PROGRAM\USER_PROGRAM.C"
 124  0001  1F16        	clr [22]
 126  0002              #line 126 "C:\Users\my asus\Desktop\Git_project\Touch-Slave\USER_PROGRAM\USER_PROGRAM.C"
 126  0002  1F14        	clr [20]
 127  0003              #line 127 "C:\Users\my asus\Desktop\Git_project\Touch-Slave\USER_PROGRAM\USER_PROGRAM.C"
 127  0003  1F95        	set [21]
 131  0004              #line 131 "C:\Users\my asus\Desktop\Git_project\Touch-Slave\USER_PROGRAM\USER_PROGRAM.C"
 131  0004  3094        	set [20].1
 132  0005              #line 132 "C:\Users\my asus\Desktop\Git_project\Touch-Slave\USER_PROGRAM\USER_PROGRAM.C"
 132  0005  3495        	clr [21].1
 138  0006              #line 138 "C:\Users\my asus\Desktop\Git_project\Touch-Slave\USER_PROGRAM\USER_PROGRAM.C"
 138  0006  3217        	set [23].4
 139  0007              #line 139 "C:\Users\my asus\Desktop\Git_project\Touch-Slave\USER_PROGRAM\USER_PROGRAM.C"
 139  0007  3215        	set [21].4
 154  0008              #line 154 "C:\Users\my asus\Desktop\Git_project\Touch-Slave\USER_PROGRAM\USER_PROGRAM.C"
 154  0008  0FC2        	mov a,194
 154  0009  00A4        	mov [36],a
 155  000A              #line 155 "C:\Users\my asus\Desktop\Git_project\Touch-Slave\USER_PROGRAM\USER_PROGRAM.C"
 155  000A  0F28        	mov a,40
文件：USER_PROGRAM.C 编译器版本 HGASM 0202 页次5

 155  000B  00A7        	mov [39],a
 158  000C              #line 158 "C:\Users\my asus\Desktop\Git_project\Touch-Slave\USER_PROGRAM\USER_PROGRAM.C"
 158  000C  0FBF        	mov a,191
 158  000D  00A3        	mov [35],a
 159  000E              #line 159 "C:\Users\my asus\Desktop\Git_project\Touch-Slave\USER_PROGRAM\USER_PROGRAM.C"
 159  000E  360F        	clr [15].4
 160  000F              #line 160 "C:\Users\my asus\Desktop\Git_project\Touch-Slave\USER_PROGRAM\USER_PROGRAM.C"
 160  000F  300F        	set [15].0
 162  0010              #line 162 "C:\Users\my asus\Desktop\Git_project\Touch-Slave\USER_PROGRAM\USER_PROGRAM.C"
 162  0010  2000     R  	call _SYS_LIST_INIT
 164  0011              #line 164 "C:\Users\my asus\Desktop\Git_project\Touch-Slave\USER_PROGRAM\USER_PROGRAM.C"
 164  0011  300E        	set [14].0
 164  0012  0003        	ret
 164  0013              _USER_PROGRAM_INITIAL endp
 164  0013              #line 164 "C:\Users\my asus\Desktop\Git_project\Touch-Slave\USER_PROGRAM\USER_PROGRAM.C"
 164  0013              #pragma debug scope 1 1
 164  0013              ___wdtc equ [26]
 164  0013              public _USER_PROGRAM
 164  0013              #pragma debug scope 6 1
 171  0013              #line 171 "C:\Users\my asus\Desktop\Git_project\Touch-Slave\USER_PROGRAM\USER_PROGRAM.C"
 171  0000              _USER_PROGRAM .section 'code'
 171  0000              _USER_PROGRAM proc
 174  0000              #line 174 "C:\Users\my asus\Desktop\Git_project\Touch-Slave\USER_PROGRAM\USER_PROGRAM.C"
 174  0000  2000     E  	call _GET_KEY_BITMAP
 204  0001              #line 204 "C:\Users\my asus\Desktop\Git_project\Touch-Slave\USER_PROGRAM\USER_PROGRAM.C"
 204  0001  0700     E  	mov a,_KEY_IO_SEL[0]
 204  0002  0600     E  	and a,_KEY_DATA[0]
 204  0003  0080     E  	mov ra,a
 204  0004  0700     E  	mov a,ra
 204  0005  0080     E  	mov _KEY_DATA[0],a
 206  0006              #line 206 "C:\Users\my asus\Desktop\Git_project\Touch-Slave\USER_PROGRAM\USER_PROGRAM.C"
 206  0006  1080     E  	sz ra
 206  0007  2800     R  	jmp _LI1
 206  0008  2800     R  	jmp _L17
 206  0009              _LI1:
 208  0009              #line 208 "C:\Users\my asus\Desktop\Git_project\Touch-Slave\USER_PROGRAM\USER_PROGRAM.C"
 208  0009  3494        	clr [20].1
 209  000A              #line 209 "C:\Users\my asus\Desktop\Git_project\Touch-Slave\USER_PROGRAM\USER_PROGRAM.C"
 209  000A  0F7F        	mov a,127
 209  000B  0080     E  	mov _STANDBY_TIME[0],a
 209  000C  2800     R  	jmp _L18
 209  000D              _L17:
 213  000D              #line 213 "C:\Users\my asus\Desktop\Git_project\Touch-Slave\USER_PROGRAM\USER_PROGRAM.C"
 213  000D  3094        	set [20].1
 215  000E              #line 215 "C:\Users\my asus\Desktop\Git_project\Touch-Slave\USER_PROGRAM\USER_PROGRAM.C"
 215  000E  0700     R  	mov a,_MCU_INF[1]
 215  000F  0200     E  	sub a,_STANDBY_TIME[0]
 215  0010  380A        	snz c
 215  0011  2800     R  	jmp _L18
 217  0012              #line 217 "C:\Users\my asus\Desktop\Git_project\Touch-Slave\USER_PROGRAM\USER_PROGRAM.C"
 217  0012  1F00     E  	clr _STANDBY_TIME[0]
 217  0013              _L18:
 226  0013              #line 226 "C:\Users\my asus\Desktop\Git_project\Touch-Slave\USER_PROGRAM\USER_PROGRAM.C"
 226  0013  3800     R  	snz _FLAG[0].0
 226  0014  2800     R  	jmp _L19
 228  0015              #line 228 "C:\Users\my asus\Desktop\Git_project\Touch-Slave\USER_PROGRAM\USER_PROGRAM.C"
 228  0015  2000     R  	call _I2C_LIST_INIT
 228  0016              _L19:
 231  0016              #line 231 "C:\Users\my asus\Desktop\Git_project\Touch-Slave\USER_PROGRAM\USER_PROGRAM.C"
 231  0016  3800     R  	snz _FLAG[0].1
文件：USER_PROGRAM.C 编译器版本 HGASM 0202 页次6

 231  0017  2800     R  	jmp _L16
 234  0018              #line 234 "C:\Users\my asus\Desktop\Git_project\Touch-Slave\USER_PROGRAM\USER_PROGRAM.C"
 234  0018  1100     R  	swapa _I2C[0]
 234  0019  0E0F        	and a,0fh
 234  001A  0080     R  	mov _I2C[0],a
 235  001B              #line 235 "C:\Users\my asus\Desktop\Git_project\Touch-Slave\USER_PROGRAM\USER_PROGRAM.C"
 235  001B  0FF6        	mov a,246
 235  001C  0380     R  	addm a,_I2C[0]
 237  001D              #line 237 "C:\Users\my asus\Desktop\Git_project\Touch-Slave\USER_PROGRAM\USER_PROGRAM.C"
 237  001D  0FFE        	mov a,254
 237  001E  0380     R  	addm a,_I2C[3]
 240  001F              #line 240 "C:\Users\my asus\Desktop\Git_project\Touch-Slave\USER_PROGRAM\USER_PROGRAM.C"
 240  001F  0F03        	mov a,3
 240  0020  0200     R  	sub a,_I2C[0]
 240  0021  380A        	snz c
 240  0022  2800     R  	jmp _L21
 240  0023  0F00     R  	mov a,low offset _IC_PAGE_SIZS
 240  0024  0300     R  	add a,_I2C[0]
 240  0025  0083        	mov mp,a
 240  0026  0F00     R  	mov a,high offset _IC_PAGE_SIZS
 240  0027  1F01        	clr sbp
 240  0028  1381        	adcm a,sbp
 240  0029  2000     E  	call _Crom2Prom
 240  002A  0080     E  	mov ra,a
 240  002B  0700     R  	mov a,_I2C[3]
 240  002C  0200     E  	sub a,ra
 240  002D  390A        	snz z
 240  002E  2800     R  	jmp _L21
 242  002F              #line 242 "C:\Users\my asus\Desktop\Git_project\Touch-Slave\USER_PROGRAM\USER_PROGRAM.C"
 242  002F  0100     R  	cpla _I2C[5]
 242  0030  0080     R  	mov _I2C[5],a
 244  0031              #line 244 "C:\Users\my asus\Desktop\Git_project\Touch-Slave\USER_PROGRAM\USER_PROGRAM.C"
 244  0031  0700     R  	mov a,_I2C[4]
 244  0032  0200     R  	sub a,_I2C[5]
 244  0033  390A        	snz z
 244  0034  2800     R  	jmp _L21
 246  0035              #line 246 "C:\Users\my asus\Desktop\Git_project\Touch-Slave\USER_PROGRAM\USER_PROGRAM.C"
 246  0035  0F01        	mov a,1
 246  0036  0080     R  	mov _SYS_INF[0],a
 248  0037              #line 248 "C:\Users\my asus\Desktop\Git_project\Touch-Slave\USER_PROGRAM\USER_PROGRAM.C"
 248  0037  2000     R  	call _DATA_LIST_UPDATA
 251  0038              #line 251 "C:\Users\my asus\Desktop\Git_project\Touch-Slave\USER_PROGRAM\USER_PROGRAM.C"
 251  0038  0700     R  	mov a,_MCU_INF[0]
 251  0039  0A0A        	sub a,10
 251  003A  390A        	snz z
 251  003B  2800     R  	jmp _L23
 253  003C              #line 253 "C:\Users\my asus\Desktop\Git_project\Touch-Slave\USER_PROGRAM\USER_PROGRAM.C"
 253  003C  3494        	clr [20].1
 254  003D              #line 254 "C:\Users\my asus\Desktop\Git_project\Touch-Slave\USER_PROGRAM\USER_PROGRAM.C"
 254  003D  1F9A        	set [26]
 254  003E  2800     R  	jmp _L23
 254  003F              _L21:
 261  003F              #line 261 "C:\Users\my asus\Desktop\Git_project\Touch-Slave\USER_PROGRAM\USER_PROGRAM.C"
 261  003F  1F00     R  	clr _SYS_INF[0]
 261  0040              _L23:
 263  0040              #line 263 "C:\Users\my asus\Desktop\Git_project\Touch-Slave\USER_PROGRAM\USER_PROGRAM.C"
 263  0040  3400     R  	clr _FLAG[0].1
 263  0041              _L16:
 263  0041  0003        	ret
 263  0042              _USER_PROGRAM endp
文件：USER_PROGRAM.C 编译器版本 HGASM 0202 页次7

 263  0042              #line 263 "C:\Users\my asus\Desktop\Git_project\Touch-Slave\USER_PROGRAM\USER_PROGRAM.C"
 263  0042              #pragma debug scope 1 1
 263  0042              ___simc1 equ [37]
 263  0042              ___simd equ [38]
 263  0042              ___acc equ [5]
 263  0042              public _IIC_ISR
 263  0042              #pragma debug scope 7 1
 272  0042              #line 272 "C:\Users\my asus\Desktop\Git_project\Touch-Slave\USER_PROGRAM\USER_PROGRAM.C"
 272  0000              @IIC_ISR_code .section at 16 'code'
 272  0000  0080     E  	mov r1,a
 272  0001  0704        	mov a,bp
 272  0002  0080     E  	mov r2,a
 272  0003  2800     R  	jmp _IIC_ISR
 272  0004              #pragma debug scope 1 1
 272  0004              @dummy16 endp
 272  0004              #pragma debug scope 8 1
 272  0000              _IIC_ISR .section 'code'
 272  0000              _IIC_ISR proc
 272  0000  0002[       local _IIC_ISR_2 db 2 dup(?)
            00
            ]
 272  0000  070A        	mov a,status
 272  0001  0080     E  	mov r3,a
 272  0002  0703        	mov a,mp
 272  0003  0080     E  	mov r4,a
 272  0004  0701        	mov a,sbp
 272  0005  0080     E  	mov r5,a
 272  0006              #pragma debug variable 8 8 _IIC_ISR_2+0 "data"
 275  0006              #line 275 "C:\Users\my asus\Desktop\Git_project\Touch-Slave\USER_PROGRAM\USER_PROGRAM.C"
 275  0006  360F        	clr [15].4
 276  0007              #line 276 "C:\Users\my asus\Desktop\Git_project\Touch-Slave\USER_PROGRAM\USER_PROGRAM.C"
 276  0007  3B23        	snz [35].6
 276  0008  2800     R  	jmp _L31
 278  0009              #line 278 "C:\Users\my asus\Desktop\Git_project\Touch-Slave\USER_PROGRAM\USER_PROGRAM.C"
 278  0009  33A3        	set [35].7
 279  000A              #line 279 "C:\Users\my asus\Desktop\Git_project\Touch-Slave\USER_PROGRAM\USER_PROGRAM.C"
 279  000A  3723        	clr [35].6
 280  000B              #line 280 "C:\Users\my asus\Desktop\Git_project\Touch-Slave\USER_PROGRAM\USER_PROGRAM.C"
 280  000B  3000     R  	set _FLAG[0].0
 280  000C  2800     R  	jmp _L30
 280  000D              _L31:
 284  000D              #line 284 "C:\Users\my asus\Desktop\Git_project\Touch-Slave\USER_PROGRAM\USER_PROGRAM.C"
 284  000D  3B25        	snz [37].6
 284  000E  2800     R  	jmp _L33
 288  000F              #line 288 "C:\Users\my asus\Desktop\Git_project\Touch-Slave\USER_PROGRAM\USER_PROGRAM.C"
 288  000F  3925        	snz [37].2
 288  0010  2800     R  	jmp _L34
 291  0011              #line 291 "C:\Users\my asus\Desktop\Git_project\Touch-Slave\USER_PROGRAM\USER_PROGRAM.C"
 291  0011  1080     R  	sz _I2C[0]
 291  0012  2800     R  	jmp _L35
 293  0013              #line 293 "C:\Users\my asus\Desktop\Git_project\Touch-Slave\USER_PROGRAM\USER_PROGRAM.C"
 293  0013  0F03        	mov a,3
 293  0014  0080     R  	mov _I2C[1],a
 294  0015              #line 294 "C:\Users\my asus\Desktop\Git_project\Touch-Slave\USER_PROGRAM\USER_PROGRAM.C"
 294  0015  0FA0        	mov a,160
 294  0016  0080     R  	mov _I2C[2],a
 295  0017              #line 295 "C:\Users\my asus\Desktop\Git_project\Touch-Slave\USER_PROGRAM\USER_PROGRAM.C"
 295  0017  1F00     R  	clr _I2C[5]
 295  0018              _L35:
 299  0018              #line 299 "C:\Users\my asus\Desktop\Git_project\Touch-Slave\USER_PROGRAM\USER_PROGRAM.C"
文件：USER_PROGRAM.C 编译器版本 HGASM 0202 页次8

 299  0018  0700     R  	mov a,_I2C[2]
 299  0019  0080     R  	mov _IIC_ISR_2[1],a
 299  001A  0700     R  	mov a,_IIC_ISR_2[1]
 299  001B  0AA0        	sub a,160
 299  001C  3D0A        	sz z
 299  001D  2800     R  	jmp _L37
 299  001E  0A10        	sub a,(176)-(160)
 299  001F  3D0A        	sz z
 299  0020  2800     R  	jmp _L38
 299  0021  0700     R  	mov a,_IIC_ISR_2[1]
 299  0022  0AC0        	sub a,192
 299  0023  3D0A        	sz z
 299  0024  2800     R  	jmp _L39
 299  0025  0A10        	sub a,(208)-(192)
 299  0026  3D0A        	sz z
 299  0027  2800     R  	jmp _L40
 299  0028  0700     R  	mov a,_IIC_ISR_2[1]
 299  0029  0AE0        	sub a,224
 299  002A  3D0A        	sz z
 299  002B  2800     R  	jmp _L41
 299  002C  0700     R  	mov a,_IIC_ISR_2[1]
 299  002D  0AF0        	sub a,240
 299  002E  390A        	snz z
 299  002F  2800     R  	jmp _L77
 306  0030              #line 306 "C:\Users\my asus\Desktop\Git_project\Touch-Slave\USER_PROGRAM\USER_PROGRAM.C"
 306  0030  0700     R  	mov a,_SYS_INF[0]
 306  0031  0080     R  	mov _IIC_ISR_2[0],a
 306  0032  0F0F        	mov a,15
 306  0033  0080     R  	mov _SYS_INF[0],a
 306  0034  2800     R  	jmp _L43
 306  0035              _L37:
 301  0035              #line 301 "C:\Users\my asus\Desktop\Git_project\Touch-Slave\USER_PROGRAM\USER_PROGRAM.C"
 301  0035  0700     E  	mov a,_GLOBE_VARIES[0]
 301  0036  0080     R  	mov _IIC_ISR_2[0],a
 301  0037  2800     R  	jmp _L43
 301  0038              _L38:
 302  0038              #line 302 "C:\Users\my asus\Desktop\Git_project\Touch-Slave\USER_PROGRAM\USER_PROGRAM.C"
 302  0038  0700     E  	mov a,_GLOBE_VARIES[3]
 302  0039  0080     R  	mov _IIC_ISR_2[0],a
 302  003A  2800     R  	jmp _L43
 302  003B              _L39:
 303  003B              #line 303 "C:\Users\my asus\Desktop\Git_project\Touch-Slave\USER_PROGRAM\USER_PROGRAM.C"
 303  003B  0700     E  	mov a,_KEY_IO_SEL[0]
 303  003C  0080     R  	mov _IIC_ISR_2[0],a
 303  003D  2800     R  	jmp _L43
 303  003E              _L40:
 304  003E              #line 304 "C:\Users\my asus\Desktop\Git_project\Touch-Slave\USER_PROGRAM\USER_PROGRAM.C"
 304  003E  0700     R  	mov a,_MCU_INF[0]
 304  003F  0080     R  	mov _IIC_ISR_2[0],a
 304  0040  2800     R  	jmp _L43
 304  0041              _L41:
 305  0041              #line 305 "C:\Users\my asus\Desktop\Git_project\Touch-Slave\USER_PROGRAM\USER_PROGRAM.C"
 305  0041  0700     E  	mov a,_KEY_DATA[0]
 305  0042  0080     R  	mov _IIC_ISR_2[0],a
 305  0043  2800     R  	jmp _L43
 305  0044              _L77:
 307  0044              #line 307 "C:\Users\my asus\Desktop\Git_project\Touch-Slave\USER_PROGRAM\USER_PROGRAM.C"
 307  0044  0FAA        	mov a,170
 307  0045  0080     R  	mov _IIC_ISR_2[0],a
 307  0046              _L43:
文件：USER_PROGRAM.C 编译器版本 HGASM 0202 页次9

 309  0046              #line 309 "C:\Users\my asus\Desktop\Git_project\Touch-Slave\USER_PROGRAM\USER_PROGRAM.C"
 309  0046  3225        	set [37].4
 310  0047              #line 310 "C:\Users\my asus\Desktop\Git_project\Touch-Slave\USER_PROGRAM\USER_PROGRAM.C"
 310  0047  0700     R  	mov a,_IIC_ISR_2[0]
 310  0048  00A6        	mov [38],a
 312  0049              #line 312 "C:\Users\my asus\Desktop\Git_project\Touch-Slave\USER_PROGRAM\USER_PROGRAM.C"
 312  0049  0700     R  	mov a,_IIC_ISR_2[0]
 312  004A  0380     R  	addm a,_I2C[5]
 314  004B              #line 314 "C:\Users\my asus\Desktop\Git_project\Touch-Slave\USER_PROGRAM\USER_PROGRAM.C"
 314  004B  0700     R  	mov a,_I2C[2]
 314  004C  0380     R  	addm a,_I2C[1]
 314  004D  2800     R  	jmp _L83
 314  004E              _L34:
 322  004E              #line 322 "C:\Users\my asus\Desktop\Git_project\Touch-Slave\USER_PROGRAM\USER_PROGRAM.C"
 322  004E  3625        	clr [37].4
 323  004F              #line 323 "C:\Users\my asus\Desktop\Git_project\Touch-Slave\USER_PROGRAM\USER_PROGRAM.C"
 323  004F  35A5        	clr [37].3
 324  0050              #line 324 "C:\Users\my asus\Desktop\Git_project\Touch-Slave\USER_PROGRAM\USER_PROGRAM.C"
 324  0050  0726        	mov a,[38]
 324  0051  0085        	mov [5],a
 326  0052              #line 326 "C:\Users\my asus\Desktop\Git_project\Touch-Slave\USER_PROGRAM\USER_PROGRAM.C"
 326  0052  1F00     R  	clr _I2C[3]
 327  0053              #line 327 "C:\Users\my asus\Desktop\Git_project\Touch-Slave\USER_PROGRAM\USER_PROGRAM.C"
 327  0053  1F00     R  	clr _I2C[2]
 328  0054              #line 328 "C:\Users\my asus\Desktop\Git_project\Touch-Slave\USER_PROGRAM\USER_PROGRAM.C"
 328  0054  1F00     R  	clr _I2C[1]
 329  0055              #line 329 "C:\Users\my asus\Desktop\Git_project\Touch-Slave\USER_PROGRAM\USER_PROGRAM.C"
 329  0055  3400     R  	clr _FLAG[0].1
 329  0056  2800     R  	jmp _L30
 329  0057              _L33:
 335  0057              #line 335 "C:\Users\my asus\Desktop\Git_project\Touch-Slave\USER_PROGRAM\USER_PROGRAM.C"
 335  0057  3A25        	snz [37].4
 335  0058  2800     R  	jmp _L45
 337  0059              #line 337 "C:\Users\my asus\Desktop\Git_project\Touch-Slave\USER_PROGRAM\USER_PROGRAM.C"
 337  0059  3825        	snz [37].0
 337  005A  2800     R  	jmp _L46
 339  005B              #line 339 "C:\Users\my asus\Desktop\Git_project\Touch-Slave\USER_PROGRAM\USER_PROGRAM.C"
 339  005B  3625        	clr [37].4
 340  005C              #line 340 "C:\Users\my asus\Desktop\Git_project\Touch-Slave\USER_PROGRAM\USER_PROGRAM.C"
 340  005C  35A5        	clr [37].3
 341  005D              #line 341 "C:\Users\my asus\Desktop\Git_project\Touch-Slave\USER_PROGRAM\USER_PROGRAM.C"
 341  005D  0726        	mov a,[38]
 341  005E  0085        	mov [5],a
 343  005F              #line 343 "C:\Users\my asus\Desktop\Git_project\Touch-Slave\USER_PROGRAM\USER_PROGRAM.C"
 343  005F  1F00     R  	clr _I2C[0]
 344  0060              #line 344 "C:\Users\my asus\Desktop\Git_project\Touch-Slave\USER_PROGRAM\USER_PROGRAM.C"
 344  0060  1F00     R  	clr _I2C[1]
 345  0061              #line 345 "C:\Users\my asus\Desktop\Git_project\Touch-Slave\USER_PROGRAM\USER_PROGRAM.C"
 345  0061  1F00     R  	clr _I2C[2]
 345  0062  2800     R  	jmp _L30
 345  0063              _L46:
 350  0063              #line 350 "C:\Users\my asus\Desktop\Git_project\Touch-Slave\USER_PROGRAM\USER_PROGRAM.C"
 350  0063  0700     R  	mov a,_I2C[2]
 350  0064  0080     R  	mov _IIC_ISR_2[1],a
 350  0065  0700     R  	mov a,_IIC_ISR_2[1]
 350  0066  0AA1        	sub a,161
 350  0067  3D0A        	sz z
 350  0068  2800     R  	jmp _L48
 350  0069  0A01        	sub a,(162)-(161)
 350  006A  3D0A        	sz z
文件：USER_PROGRAM.C 编译器版本 HGASM 0202 页次10

 350  006B  2800     R  	jmp _L49
 350  006C  0700     R  	mov a,_IIC_ISR_2[1]
 350  006D  0AB1        	sub a,177
 350  006E  3D0A        	sz z
 350  006F  2800     R  	jmp _L50
 350  0070  0A01        	sub a,(178)-(177)
 350  0071  3D0A        	sz z
 350  0072  2800     R  	jmp _L51
 350  0073  0700     R  	mov a,_IIC_ISR_2[1]
 350  0074  0AB3        	sub a,179
 350  0075  3D0A        	sz z
 350  0076  2800     R  	jmp _L52
 350  0077  0A01        	sub a,(180)-(179)
 350  0078  3D0A        	sz z
 350  0079  2800     R  	jmp _L53
 350  007A  0700     R  	mov a,_IIC_ISR_2[1]
 350  007B  0AB5        	sub a,181
 350  007C  3D0A        	sz z
 350  007D  2800     R  	jmp _L54
 350  007E  0A01        	sub a,(182)-(181)
 350  007F  3D0A        	sz z
 350  0080  2800     R  	jmp _L55
 350  0081  0700     R  	mov a,_IIC_ISR_2[1]
 350  0082  0AB7        	sub a,183
 350  0083  3D0A        	sz z
 350  0084  2800     R  	jmp _L56
 350  0085  0A01        	sub a,(184)-(183)
 350  0086  3D0A        	sz z
 350  0087  2800     R  	jmp _L57
 350  0088  0700     R  	mov a,_IIC_ISR_2[1]
 350  0089  0AB9        	sub a,185
 350  008A  3D0A        	sz z
 350  008B  2800     R  	jmp _L58
 350  008C  0A01        	sub a,(186)-(185)
 350  008D  3D0A        	sz z
 350  008E  2800     R  	jmp _L59
 350  008F  0700     R  	mov a,_IIC_ISR_2[1]
 350  0090  0ABB        	sub a,187
 350  0091  3D0A        	sz z
 350  0092  2800     R  	jmp _L60
 350  0093  0A06        	sub a,(193)-(187)
 350  0094  3D0A        	sz z
 350  0095  2800     R  	jmp _L61
 350  0096  0700     R  	mov a,_IIC_ISR_2[1]
 350  0097  0AD1        	sub a,209
 350  0098  3D0A        	sz z
 350  0099  2800     R  	jmp _L62
 350  009A  0A10        	sub a,(225)-(209)
 350  009B  3D0A        	sz z
 350  009C  2800     R  	jmp _L63
 350  009D  0700     R  	mov a,_IIC_ISR_2[1]
 350  009E  0AF1        	sub a,241
 350  009F  3D0A        	sz z
 350  00A0  2800     R  	jmp _L64
 350  00A1  1600     R  	siza _IIC_ISR_2[1]
 350  00A2  2800     R  	jmp _L78
 396  00A3              #line 396 "C:\Users\my asus\Desktop\Git_project\Touch-Slave\USER_PROGRAM\USER_PROGRAM.C"
 396  00A3  0100     R  	cpla _I2C[5]
 396  00A4  0080     R  	mov _IIC_ISR_2[0],a
 396  00A5  2800     R  	jmp _L66
文件：USER_PROGRAM.C 编译器版本 HGASM 0202 页次11

 396  00A6              _L48:
 354  00A6              #line 354 "C:\Users\my asus\Desktop\Git_project\Touch-Slave\USER_PROGRAM\USER_PROGRAM.C"
 354  00A6  0700     E  	mov a,_GLOBE_VARIES[1]
 354  00A7  0080     R  	mov _IIC_ISR_2[0],a
 354  00A8  2800     R  	jmp _L66
 354  00A9              _L49:
 355  00A9              #line 355 "C:\Users\my asus\Desktop\Git_project\Touch-Slave\USER_PROGRAM\USER_PROGRAM.C"
 355  00A9  0700     E  	mov a,_GLOBE_VARIES[2]
 355  00AA  0080     R  	mov _IIC_ISR_2[0],a
 355  00AB  2800     R  	jmp _L66
 355  00AC              _L50:
 358  00AC              #line 358 "C:\Users\my asus\Desktop\Git_project\Touch-Slave\USER_PROGRAM\USER_PROGRAM.C"
 358  00AC  0700     E  	mov a,_GLOBE_VARIES[4]
 358  00AD  0080     R  	mov _IIC_ISR_2[0],a
 358  00AE  2800     R  	jmp _L66
 358  00AF              _L51:
 359  00AF              #line 359 "C:\Users\my asus\Desktop\Git_project\Touch-Slave\USER_PROGRAM\USER_PROGRAM.C"
 359  00AF  0700     E  	mov a,_GLOBE_VARIES[5]
 359  00B0  0080     R  	mov _IIC_ISR_2[0],a
 359  00B1  2800     R  	jmp _L66
 359  00B2              _L52:
 360  00B2              #line 360 "C:\Users\my asus\Desktop\Git_project\Touch-Slave\USER_PROGRAM\USER_PROGRAM.C"
 360  00B2  0700     E  	mov a,_GLOBE_VARIES[6]
 360  00B3  0080     R  	mov _IIC_ISR_2[0],a
 360  00B4  2800     R  	jmp _L66
 360  00B5              _L53:
 361  00B5              #line 361 "C:\Users\my asus\Desktop\Git_project\Touch-Slave\USER_PROGRAM\USER_PROGRAM.C"
 361  00B5  0700     E  	mov a,_GLOBE_VARIES[7]
 361  00B6  0080     R  	mov _IIC_ISR_2[0],a
 361  00B7  2800     R  	jmp _L66
 361  00B8              _L54:
 362  00B8              #line 362 "C:\Users\my asus\Desktop\Git_project\Touch-Slave\USER_PROGRAM\USER_PROGRAM.C"
 362  00B8  0700     E  	mov a,_GLOBE_VARIES[8]
 362  00B9  0080     R  	mov _IIC_ISR_2[0],a
 362  00BA  2800     R  	jmp _L66
 362  00BB              _L55:
 363  00BB              #line 363 "C:\Users\my asus\Desktop\Git_project\Touch-Slave\USER_PROGRAM\USER_PROGRAM.C"
 363  00BB  0700     E  	mov a,_GLOBE_VARIES[9]
 363  00BC  0080     R  	mov _IIC_ISR_2[0],a
 363  00BD  2800     R  	jmp _L66
 363  00BE              _L56:
 364  00BE              #line 364 "C:\Users\my asus\Desktop\Git_project\Touch-Slave\USER_PROGRAM\USER_PROGRAM.C"
 364  00BE  0700     E  	mov a,_GLOBE_VARIES[10]
 364  00BF  0080     R  	mov _IIC_ISR_2[0],a
 364  00C0  2800     R  	jmp _L66
 364  00C1              _L57:
 368  00C1              #line 368 "C:\Users\my asus\Desktop\Git_project\Touch-Slave\USER_PROGRAM\USER_PROGRAM.C"
 368  00C1  0700     E  	mov a,_GLOBE_VARIES[11]
 368  00C2  0080     R  	mov _IIC_ISR_2[0],a
 368  00C3  2800     R  	jmp _L66
 368  00C4              _L58:
 369  00C4              #line 369 "C:\Users\my asus\Desktop\Git_project\Touch-Slave\USER_PROGRAM\USER_PROGRAM.C"
 369  00C4  0700     E  	mov a,_GLOBE_VARIES[12]
 369  00C5  0080     R  	mov _IIC_ISR_2[0],a
 369  00C6  2800     R  	jmp _L66
 369  00C7              _L59:
 370  00C7              #line 370 "C:\Users\my asus\Desktop\Git_project\Touch-Slave\USER_PROGRAM\USER_PROGRAM.C"
 370  00C7  0700     E  	mov a,_GLOBE_VARIES[13]
 370  00C8  0080     R  	mov _IIC_ISR_2[0],a
 370  00C9  2800     R  	jmp _L66
文件：USER_PROGRAM.C 编译器版本 HGASM 0202 页次12

 370  00CA              _L60:
 371  00CA              #line 371 "C:\Users\my asus\Desktop\Git_project\Touch-Slave\USER_PROGRAM\USER_PROGRAM.C"
 371  00CA  0700     E  	mov a,_GLOBE_VARIES[14]
 371  00CB  0080     R  	mov _IIC_ISR_2[0],a
 371  00CC  2800     R  	jmp _L66
 371  00CD              _L61:
 383  00CD              #line 383 "C:\Users\my asus\Desktop\Git_project\Touch-Slave\USER_PROGRAM\USER_PROGRAM.C"
 383  00CD  0700     E  	mov a,_KEY_IO_SEL[1]
 383  00CE  0080     R  	mov _IIC_ISR_2[0],a
 383  00CF  2800     R  	jmp _L66
 383  00D0              _L62:
 386  00D0              #line 386 "C:\Users\my asus\Desktop\Git_project\Touch-Slave\USER_PROGRAM\USER_PROGRAM.C"
 386  00D0  0700     R  	mov a,_MCU_INF[1]
 386  00D1  0080     R  	mov _IIC_ISR_2[0],a
 386  00D2  2800     R  	jmp _L66
 386  00D3              _L63:
 389  00D3              #line 389 "C:\Users\my asus\Desktop\Git_project\Touch-Slave\USER_PROGRAM\USER_PROGRAM.C"
 389  00D3  0700     E  	mov a,_KEY_DATA[1]
 389  00D4  0080     R  	mov _IIC_ISR_2[0],a
 389  00D5  2800     R  	jmp _L66
 389  00D6              _L64:
 394  00D6              #line 394 "C:\Users\my asus\Desktop\Git_project\Touch-Slave\USER_PROGRAM\USER_PROGRAM.C"
 394  00D6  0700     R  	mov a,_SYS_INF[1]
 394  00D7  0080     R  	mov _IIC_ISR_2[0],a
 394  00D8  2800     R  	jmp _L66
 394  00D9              _L78:
 398  00D9              #line 398 "C:\Users\my asus\Desktop\Git_project\Touch-Slave\USER_PROGRAM\USER_PROGRAM.C"
 398  00D9  0FAA        	mov a,170
 398  00DA  0080     R  	mov _IIC_ISR_2[0],a
 398  00DB              _L66:
 401  00DB              #line 401 "C:\Users\my asus\Desktop\Git_project\Touch-Slave\USER_PROGRAM\USER_PROGRAM.C"
 401  00DB  0700     R  	mov a,_IIC_ISR_2[0]
 401  00DC  00A6        	mov [38],a
 403  00DD              #line 403 "C:\Users\my asus\Desktop\Git_project\Touch-Slave\USER_PROGRAM\USER_PROGRAM.C"
 403  00DD  0700     R  	mov a,_IIC_ISR_2[0]
 403  00DE  0380     R  	addm a,_I2C[5]
 403  00DF              _L83:
 405  00DF              #line 405 "C:\Users\my asus\Desktop\Git_project\Touch-Slave\USER_PROGRAM\USER_PROGRAM.C"
 405  00DF  1480     R  	inc _I2C[2]
 406  00E0              #line 406 "C:\Users\my asus\Desktop\Git_project\Touch-Slave\USER_PROGRAM\USER_PROGRAM.C"
 406  00E0  0700     R  	mov a,_I2C[2]
 406  00E1  0200     R  	sub a,_I2C[1]
 406  00E2  380A        	snz c
 406  00E3  2800     R  	jmp _L30
 407  00E4              #line 407 "C:\Users\my asus\Desktop\Git_project\Touch-Slave\USER_PROGRAM\USER_PROGRAM.C"
 407  00E4  1F80     R  	set _I2C[2]
 407  00E5  2800     R  	jmp _L30
 407  00E6              _L45:
 413  00E6              #line 413 "C:\Users\my asus\Desktop\Git_project\Touch-Slave\USER_PROGRAM\USER_PROGRAM.C"
 413  00E6  0726        	mov a,[38]
 413  00E7  0080     R  	mov _IIC_ISR_2[0],a
 414  00E8              #line 414 "C:\Users\my asus\Desktop\Git_project\Touch-Slave\USER_PROGRAM\USER_PROGRAM.C"
 414  00E8  35A5        	clr [37].3
 416  00E9              #line 416 "C:\Users\my asus\Desktop\Git_project\Touch-Slave\USER_PROGRAM\USER_PROGRAM.C"
 416  00E9  1080     R  	sz _I2C[3]
 416  00EA  2800     R  	jmp _L68
 420  00EB              #line 420 "C:\Users\my asus\Desktop\Git_project\Touch-Slave\USER_PROGRAM\USER_PROGRAM.C"
 420  00EB  0700     R  	mov a,_IIC_ISR_2[0]
 420  00EC  0EF0        	and a,240
 420  00ED  0080     R  	mov _I2C[0],a
文件：USER_PROGRAM.C 编译器版本 HGASM 0202 页次13

 422  00EE              #line 422 "C:\Users\my asus\Desktop\Git_project\Touch-Slave\USER_PROGRAM\USER_PROGRAM.C"
 422  00EE  0700     R  	mov a,_I2C[0]
 422  00EF  0080     R  	mov _IIC_ISR_2[1],a
 422  00F0  0700     R  	mov a,_IIC_ISR_2[1]
 422  00F1  0AB0        	sub a,176
 422  00F2  3D0A        	sz z
 422  00F3  2800     R  	jmp _L70
 422  00F4  0A10        	sub a,(192)-(176)
 422  00F5  3D0A        	sz z
 422  00F6  2800     R  	jmp _L71
 422  00F7  0700     R  	mov a,_IIC_ISR_2[1]
 422  00F8  0AD0        	sub a,208
 422  00F9  3D0A        	sz z
 422  00FA  2800     R  	jmp _L72
 422  00FB  0A10        	sub a,(224)-(208)
 422  00FC  3D0A        	sz z
 422  00FD  2800     R  	jmp _L73
 422  00FE  0700     R  	mov a,_IIC_ISR_2[1]
 422  00FF  0AF0        	sub a,240
 422  0100  390A        	snz z
 422  0101  2800     R  	jmp _L79
 429  0102              #line 429 "C:\Users\my asus\Desktop\Git_project\Touch-Slave\USER_PROGRAM\USER_PROGRAM.C"
 429  0102  0F02        	mov a,2
 429  0103  0080     R  	mov _I2C[1],a
 429  0104  0FF0        	mov a,240
 429  0105  0080     R  	mov _I2C[2],a
 429  0106  2800     R  	jmp _L75
 429  0107              _L70:
 425  0107              #line 425 "C:\Users\my asus\Desktop\Git_project\Touch-Slave\USER_PROGRAM\USER_PROGRAM.C"
 425  0107  0F0C        	mov a,12
 425  0108  0080     R  	mov _I2C[1],a
 425  0109  0FB0        	mov a,176
 425  010A  0080     R  	mov _I2C[2],a
 425  010B  2800     R  	jmp _L75
 425  010C              _L71:
 426  010C              #line 426 "C:\Users\my asus\Desktop\Git_project\Touch-Slave\USER_PROGRAM\USER_PROGRAM.C"
 426  010C  0F02        	mov a,2
 426  010D  0080     R  	mov _I2C[1],a
 426  010E  0FC0        	mov a,192
 426  010F  0080     R  	mov _I2C[2],a
 426  0110  2800     R  	jmp _L75
 426  0111              _L72:
 427  0111              #line 427 "C:\Users\my asus\Desktop\Git_project\Touch-Slave\USER_PROGRAM\USER_PROGRAM.C"
 427  0111  0F02        	mov a,2
 427  0112  0080     R  	mov _I2C[1],a
 427  0113  0FD0        	mov a,208
 427  0114  0080     R  	mov _I2C[2],a
 427  0115  2800     R  	jmp _L75
 427  0116              _L73:
 428  0116              #line 428 "C:\Users\my asus\Desktop\Git_project\Touch-Slave\USER_PROGRAM\USER_PROGRAM.C"
 428  0116  0F02        	mov a,2
 428  0117  0080     R  	mov _I2C[1],a
 428  0118  0FE0        	mov a,224
 428  0119  0080     R  	mov _I2C[2],a
 428  011A  2800     R  	jmp _L75
 428  011B              _L79:
 430  011B              #line 430 "C:\Users\my asus\Desktop\Git_project\Touch-Slave\USER_PROGRAM\USER_PROGRAM.C"
 430  011B  0F03        	mov a,3
 430  011C  0080     R  	mov _I2C[1],a
 430  011D  0FA0        	mov a,160
文件：USER_PROGRAM.C 编译器版本 HGASM 0202 页次14

 430  011E  0080     R  	mov _I2C[2],a
 430  011F              _L75:
 432  011F              #line 432 "C:\Users\my asus\Desktop\Git_project\Touch-Slave\USER_PROGRAM\USER_PROGRAM.C"
 432  011F  1F00     R  	clr _I2C[5]
 432  0120  2800     R  	jmp _L80
 432  0121              _L68:
 436  0121              #line 436 "C:\Users\my asus\Desktop\Git_project\Touch-Slave\USER_PROGRAM\USER_PROGRAM.C"
 436  0121  0700     R  	mov a,_I2C[1]
 436  0122  0200     R  	sub a,_I2C[3]
 436  0123  380A        	snz c
 436  0124  2800     R  	jmp _L76
 438  0125              #line 438 "C:\Users\my asus\Desktop\Git_project\Touch-Slave\USER_PROGRAM\USER_PROGRAM.C"
 438  0125  0F00     R  	mov a,low (offset _I2C_Data-1)
 438  0126  0300     R  	add a,_I2C[3]
 438  0127  0083        	mov mp,a
 438  0128  0F00     R  	mov a,high (offset _I2C_Data-1)
 438  0129  1F01        	clr sbp
 438  012A  1381        	adcm a,sbp
 438  012B  0701        	mov a,sbp
 438  012C  0084        	mov bp,a
 438  012D  0700     R  	mov a,_IIC_ISR_2[0]
 438  012E  0082        	mov ir,a
 439  012F              #line 439 "C:\Users\my asus\Desktop\Git_project\Touch-Slave\USER_PROGRAM\USER_PROGRAM.C"
 439  012F  0700     R  	mov a,_IIC_ISR_2[0]
 439  0130  0380     R  	addm a,_I2C[5]
 439  0131  2800     R  	jmp _L80
 439  0132              _L76:
 444  0132              #line 444 "C:\Users\my asus\Desktop\Git_project\Touch-Slave\USER_PROGRAM\USER_PROGRAM.C"
 444  0132  0700     R  	mov a,_IIC_ISR_2[0]
 444  0133  0080     R  	mov _I2C[4],a
 445  0134              #line 445 "C:\Users\my asus\Desktop\Git_project\Touch-Slave\USER_PROGRAM\USER_PROGRAM.C"
 445  0134  3000     R  	set _FLAG[0].1
 445  0135              _L80:
 446  0135              #line 446 "C:\Users\my asus\Desktop\Git_project\Touch-Slave\USER_PROGRAM\USER_PROGRAM.C"
 446  0135  1480     R  	inc _I2C[3]
 446  0136              _L30:
 446  0136  0700     E  	mov a,r2
 446  0137  0084        	mov bp,a
 446  0138  0700     E  	mov a,r3
 446  0139  008A        	mov status,a
 446  013A  0700     E  	mov a,r4
 446  013B  0083        	mov mp,a
 446  013C  0700     E  	mov a,r5
 446  013D  0081        	mov sbp,a
 446  013E  0700     E  	mov a,r1
 446  013F  0004        	reti
 446  0140              _IIC_ISR endp
 446  0140              
 446  0140              #line 446 "C:\Users\my asus\Desktop\Git_project\Touch-Slave\USER_PROGRAM\USER_PROGRAM.C"
 446  0140              #pragma debug scope 1 1
  63  0140              #line 63 "C:\Users\my asus\Desktop\Git_project\Touch-Slave\USER_PROGRAM\USER_PROGRAM.C"
  63  0140              public _SYS_INF
  63  0000              @HCCINIT0 .section 'data'
  63  0000  0003[       _SYS_INF	db 3 dup(0)
            00
            ]
  63  0003              #pragma debug array 42 8 3 1
  63  0003              #pragma debug array 42 8 3 1
  63  0003              #pragma debug variable 42 1 _SYS_INF "SYS_INF"
  63  0003              
文件：USER_PROGRAM.C 编译器版本 HGASM 0202 页次15

  63  0000              @HCCINIT .section 'data'
  56  0000              #line 56 "C:\Users\my asus\Desktop\Git_project\Touch-Slave\USER_PROGRAM\USER_PROGRAM.C"
  56  0000              public _MCU_INF
  56  0003              @HCCINIT0 .section 'data'
  56  0003  0003[       _MCU_INF	db 3 dup(0)
            00
            ]
  56  0006              #pragma debug variable 42 1 _MCU_INF "MCU_INF"
  56  0006              
  56  0000              @HCCINIT .section 'data'
  54  0000              #line 54 "C:\Users\my asus\Desktop\Git_project\Touch-Slave\USER_PROGRAM\USER_PROGRAM.C"
  54  0000              public _I2C_Data
  54  0006              @HCCINIT0 .section 'data'
  54  0006  000C[       _I2C_Data	db 12 dup(0)
            00
            ]
  54  0012              #pragma debug array 43 8 12 1
  54  0012              #pragma debug array 43 8 12 1
  54  0012              #pragma debug variable 43 1 _I2C_Data "I2C_Data"
  54  0012              
  54  0000              @HCCINIT .section 'data'
  52  0000              #line 52 "C:\Users\my asus\Desktop\Git_project\Touch-Slave\USER_PROGRAM\USER_PROGRAM.C"
  52  0000              public _I2C
  52  0012              @HCCINIT0 .section 'data'
  52  0012  0006[       _I2C	db 6 dup(0)
            00
            ]
  52  0018              #pragma debug struct_end
  52  0018              #pragma debug struct_end
  52  0018              #pragma debug variable 44 1 _I2C "I2C"
  52  0018              
  52  0000              @HCCINIT .section 'data'
  34  0000              #line 34 "C:\Users\my asus\Desktop\Git_project\Touch-Slave\USER_PROGRAM\USER_PROGRAM.C"
  34  0000              public _FLAG
  34  0018              @HCCINIT0 .section 'data'
  34  0018              _FLAG	db 0
  34  0019              #pragma debug struct_end
  34  0019              #pragma debug struct_end
  34  0019              #pragma debug union_end
  34  0019              #pragma debug union_end
  34  0019              #pragma debug variable 46 1 _FLAG "FLAG"
  34  0019              
  34  0000              @HCCINIT .section 'data'
  34  0000              public _IC_PAGE_HEAD
  34  0000              @crom	.section 'crom'
  29  0000              #line 29 "C:\Users\my asus\Desktop\Git_project\Touch-Slave\USER_PROGRAM\USER_PROGRAM.C"
  29  0000              @crom	.section	'crom'
  29  0000              _IC_PAGE_HEAD:
  29  0000              #pragma debug array 47 8 6 1
  29  0000              #pragma debug array 47 8 6 1
  29  0000              #pragma debug variable 47 1 _IC_PAGE_HEAD "IC_PAGE_HEAD"
  29  0000              	db -96
  29  0001              	db -80
  29  0001              	db -64
  29  0002              	db -48
  29  0002              	db -32
  29  0003              	db -16
  29  0003              public _IC_PAGE_SIZS
  14  0003              #line 14 "C:\Users\my asus\Desktop\Git_project\Touch-Slave\USER_PROGRAM\USER_PROGRAM.C"
  14  0003              @crom	.section	'crom'
文件：USER_PROGRAM.C 编译器版本 HGASM 0202 页次16

  14  0003              _IC_PAGE_SIZS:
  14  0003              #pragma debug variable 47 1 _IC_PAGE_SIZS "IC_PAGE_SIZS"
  14  0003              	db 3
  14  0004              	db 12
  14  0004              	db 2
  14  0005              	db 2
  14  0005              	db 2
  14  0006              	db 2
  14  0006              public _SleepTime

  67  0006              #line 67 "C:\Users\my asus\Desktop\Git_project\Touch-Slave\USER_PROGRAM\TOUCH_SLAVE_CONF.H"
  67  0006              @crom	.section	'crom'
  67  0006              _SleepTime:
  67  0006              #pragma debug variable 8 1 _SleepTime "SleepTime"
  67  0006              	db 78
  67  0007              public _Version
  66  0007              #line 66 "C:\Users\my asus\Desktop\Git_project\Touch-Slave\USER_PROGRAM\TOUCH_SLAVE_CONF.H"
  66  0007              @crom	.section	'crom'
  66  0007              _Version:
  66  0007              #pragma debug variable 8 1 _Version "Version"
  66  0007              	db 24
  66  0007              public _I2C_Address
  65  0007              #line 65 "C:\Users\my asus\Desktop\Git_project\Touch-Slave\USER_PROGRAM\TOUCH_SLAVE_CONF.H"
  65  0007              @crom	.section	'crom'
  65  0007              _I2C_Address:
  65  0007              #pragma debug variable 8 1 _I2C_Address "I2C_Address"
  65  0007              	db 40
  65  0008              #pragma debug variable 8 1 ___acc "__acc" 1
  65  0008              #pragma debug struct_end
  65  0008              #pragma debug struct_end
  65  0008              #pragma debug union_end
  65  0008              #pragma debug union_end
  65  0008              #pragma debug variable 49 1 ___intc0 "__intc0" 1
  65  0008              #pragma debug struct_end
  65  0008              #pragma debug struct_end
  65  0008              #pragma debug union_end
  65  0008              #pragma debug union_end
  65  0008              #pragma debug variable 51 1 ___intc1 "__intc1" 1
  65  0008              #pragma debug struct_end
  65  0008              #pragma debug struct_end
  65  0008              #pragma debug union_end
  65  0008              #pragma debug union_end
  65  0008              #pragma debug variable 53 1 ___pa "__pa" 1
  65  0008              #pragma debug struct_end
  65  0008              #pragma debug struct_end
  65  0008              #pragma debug union_end
  65  0008              #pragma debug union_end
  65  0008              #pragma debug variable 55 1 ___pac "__pac" 1
  65  0008              #pragma debug struct_end
  65  0008              #pragma debug struct_end
  65  0008              #pragma debug union_end
  65  0008              #pragma debug union_end
  65  0008              #pragma debug variable 57 1 ___papu "__papu" 1
  65  0008              #pragma debug struct_end
  65  0008              #pragma debug struct_end
  65  0008              #pragma debug union_end
  65  0008              #pragma debug union_end
  65  0008              #pragma debug variable 59 1 ___pawu "__pawu" 1
  65  0008              #pragma debug struct_end
  65  0008              #pragma debug struct_end
文件：TOUCH_SLAVE_CONF.H 编译器版本 HGASM 0202 页次17

  65  0008              #pragma debug union_end
  65  0008              #pragma debug union_end
  65  0008              #pragma debug variable 61 1 ___wdtc "__wdtc" 1
  65  0008              #pragma debug struct_end
  65  0008              #pragma debug struct_end
  65  0008              #pragma debug union_end
  65  0008              #pragma debug union_end
  65  0008              #pragma debug variable 63 1 ___i2ctoc "__i2ctoc" 1
  65  0008              #pragma debug struct_end
  65  0008              #pragma debug struct_end
  65  0008              #pragma debug union_end
  65  0008              #pragma debug union_end
  65  0008              #pragma debug variable 65 1 ___simc0 "__simc0" 1
  65  0008              #pragma debug struct_end
  65  0008              #pragma debug struct_end
  65  0008              #pragma debug union_end
  65  0008              #pragma debug union_end
  65  0008              #pragma debug variable 67 1 ___simc1 "__simc1" 1
  65  0008              #pragma debug variable 8 1 ___simd "__simd" 1
  65  0008              #pragma debug variable 8 1 ___sima "__sima" 1
  65  0008              
  65  0008              ; output external variables
  65  0008              extern _STANDBY_TIME:byte
  65  0008              extern _KEY_DATA:byte
  65  0008              extern _GLOBE_VARIES:byte
  65  0008              extern _KEY_IO_SEL:byte
  65  0008              extern r1:byte
  65  0008              extern r2:byte
  65  0008              extern r3:byte
  65  0008              extern r4:byte
  65  0008              extern r5:byte
  65  0008              extern _GET_KEY_BITMAP:near
  65  0008              
  65  0008              ; 
  65  0008              ; Generated by holtek-gcc v3.17, Tue Feb 13 16:50:20 2018
  65  0008              ; Rebuild 307
  65  0008              ; end of file


        0 Errors, 0