文件：USER_PROGRAM.C 编译器版本 HGASM 0202 页次1


   1  0000              ; Generated by holtek-gcc v3.14, Fri Jul 28 18:38:25 2017
   2  0000              ; 
   3  0000              ; Configuration:
   4  0000              ;       without long instruction
   5  0000              ;       Single ROM, Multi-RAM
   6  0000              ;       bits_per_rom_unit:16
   7  0000              ;       with mp1
   8  0000              ;       with tbhp, address(0x9)
   9  0000              ;          Use tabrd-const
  10  0000              ;       
  11  0000              ;       
  12  0000              ;       
  13  0000              ; use 'tabrdc' instead of 'tabrd'
  14  0000              ;       
  15  0000              
  16  0000              #pragma translator "holtek-gcc 4.6.4" "3.14" "build 20130711"
  17  0000              ; Rebuild 10
  18  0000              
  19  0000              ir equ [2]
  20  0000              mp equ [3]
  21  0000              sbp equ [1]
  22  0000              acc equ [5]
  23  0000              bp equ [4]
  24  0000              tblp equ [7]
  25  0000              tbhp equ [9]
  26  0000              status equ [10]
  27  0000              c equ [10].0
  28  0000              ac equ [10].1
  29  0000              z equ [10].2
  30  0000              ov equ [10].3
  31  0000              intc equ [11]
  32  0000              
  33  0000              extern ra:byte
  34  0000              extern rb:byte
  35  0000              extern rc:byte
  36  0000              extern rd:byte
  37  0000              extern re:byte
  38  0000              extern rf:byte
  39  0000              extern rg:byte
  40  0000              extern rh:byte
  41  0000              extern _Crom2Prom:near
  42  0000              extern _Crom2PromNext:near
  43  0000              
  44  0000              RAMBANK 0 @HCCINIT, @HCCINIT0
  45  0000              
  46  0000              RAMBANK 0 @BITDATASEC, @BITDATASEC1
  47  0000              @HCCINIT	.section 'data'
  48  0000              @HCCINIT0	.section 'data'
  49  0000              @BITDATASEC	 .section 'data'
  50  0000              @BITDATASEC1	 .section 'data'
  51  0000              
  52  0000              #pragma debug scope 1 1
  53  0000              	extern __DELAY3:near
  54  0000              	extern __DELAYX3:near
  55  0000              	extern __DELAYX6:near
  56  0000              	extern __DELAYY5:near
  57  0000              	extern __DELAYY3:near
  58  0000              	extern _builtin_holtek_delay_2:byte
  59  0000              public _DATA_LIST_UPDATA
文件：USER_PROGRAM.ASM 编译器版本 HGASM 0202 页次2

  60  0000              #pragma debug scope 2 1

  85  0000              #line 85 "C:\Users\my asus\Desktop\BS83B08-12-16A\BS83B12A - v1.0\20160607_LIBV413\USER_PROGRAM\USER_PROGRAM.C"
  85  0000              _DATA_LIST_UPDATA .section 'code'
  85  0000              _DATA_LIST_UPDATA proc
  85  0000  00              local _DATA_LIST_UPDATA_2 db 1 dup(?)	; 0,1
  88  0001              #line 88 "C:\Users\my asus\Desktop\BS83B08-12-16A\BS83B12A - v1.0\20160607_LIBV413\USER_PROGRAM\USER_PROGRAM.C"
  88  0000  0F00     R  	mov a,low offset _IC_PAGE_SIZS
  88  0001  0300     R  	add a,_I2C[0]
  88  0002  0083        	mov mp,a
  88  0003  0F00     R  	mov a,high offset _IC_PAGE_SIZS
  88  0004  1F01        	clr sbp
  88  0005  1381        	adcm a,sbp
  88  0006  2000     E  	call _Crom2Prom
  88  0007  0080     R  	mov _I2C[1],a
  90  0008              #line 90 "C:\Users\my asus\Desktop\BS83B08-12-16A\BS83B12A - v1.0\20160607_LIBV413\USER_PROGRAM\USER_PROGRAM.C"
  90  0008  0700     R  	mov a,_I2C[0]
  90  0009  0080     R  	mov _DATA_LIST_UPDATA_2[0],a
  90  000A  0700     R  	mov a,_DATA_LIST_UPDATA_2[0]
  90  000B  0A00        	sub a,0
  90  000C  3D0A        	sz z
  90  000D  2800     R  	jmp _L11
  90  000E  0A01        	sub a,(1)-(0)
  90  000F  3D0A        	sz z
  90  0010  2800     R  	jmp _L9
  90  0011              #line 90 "C:\Users\my asus\Desktop\BS83B08-12-16A\BS83B12A - v1.0\20160607_LIBV413\USER_PROGRAM\USER_PROGRAM.C"
  90  0011  0700     R  	mov a,_DATA_LIST_UPDATA_2[0]
  90  0012  0A02        	sub a,2
  90  0013  3D0A        	sz z
  90  0014  2800     R  	jmp _L5
  90  0015  0700     R  	mov a,_DATA_LIST_UPDATA_2[0]
  90  0016  0A03        	sub a,3
  90  0017  390A        	snz z
  90  0018  2800     R  	jmp _L10
  95  0019              #line 95 "C:\Users\my asus\Desktop\BS83B08-12-16A\BS83B12A - v1.0\20160607_LIBV413\USER_PROGRAM\USER_PROGRAM.C"
  95  0019  0F00     R  	mov a,low offset _MCU_STATE
  95  001A  0080     E  	mov rb,a
  95  001B  0F00     R  	mov a,high offset _MCU_STATE
  95  001C  0080     E  	mov rc,a
  95  001D  2800     R  	jmp _L4
  95  001E              _L5:
  94  001E              #line 94 "C:\Users\my asus\Desktop\BS83B08-12-16A\BS83B12A - v1.0\20160607_LIBV413\USER_PROGRAM\USER_PROGRAM.C"
  94  001E  0F00     E  	mov a,low offset _KEY_IO_SEL
  94  001F  0080     E  	mov rb,a
  94  0020  0F00     E  	mov a,high offset _KEY_IO_SEL
  94  0021  0080     E  	mov rc,a
  94  0022  2800     R  	jmp _L4
  94  0023              _L10:
  96  0023              #line 96 "C:\Users\my asus\Desktop\BS83B08-12-16A\BS83B12A - v1.0\20160607_LIBV413\USER_PROGRAM\USER_PROGRAM.C"
  96  0023  1F00     R  	clr _I2C[1]
  96  0024              _L11:
  96  0024  0F00     E  	mov a,low offset _GLOBE_VARIES
  96  0025  0080     E  	mov rb,a
  96  0026  0F00     E  	mov a,high offset _GLOBE_VARIES
  96  0027  0080     E  	mov rc,a
  96  0028  2800     R  	jmp _L4
  96  0029              _L9:
  93  0029              #line 93 "C:\Users\my asus\Desktop\BS83B08-12-16A\BS83B12A - v1.0\20160607_LIBV413\USER_PROGRAM\USER_PROGRAM.C"
  93  0029  0F00     E  	mov a,low (offset _GLOBE_VARIES+3)
  93  002A  0080     E  	mov rb,a
文件：USER_PROGRAM.C 编译器版本 HGASM 0202 页次3

  93  002B  0F00     E  	mov a,high (offset _GLOBE_VARIES+3)
  93  002C  0080     E  	mov rc,a
  93  002D              _L4:
 100  002D              #line 100 "C:\Users\my asus\Desktop\BS83B08-12-16A\BS83B12A - v1.0\20160607_LIBV413\USER_PROGRAM\USER_PROGRAM.C"
 100  002D  1F00     R  	clr _I2C[3]
 100  002E  2800     R  	jmp _L7
 100  002F              _L8:
 102  002F              #line 102 "C:\Users\my asus\Desktop\BS83B08-12-16A\BS83B12A - v1.0\20160607_LIBV413\USER_PROGRAM\USER_PROGRAM.C"
 102  002F  0F00     R  	mov a,low offset _I2C_Data
 102  0030  0300     R  	add a,_I2C[3]
 102  0031  0083        	mov mp,a
 102  0032  0F00     R  	mov a,high offset _I2C_Data
 102  0033  1F01        	clr sbp
 102  0034  1381        	adcm a,sbp
 102  0035  2000     E  	call _Crom2Prom
 102  0036  0080     E  	mov ra,a
 102  0037  0700     R  	mov a,_I2C[3]
 102  0038  0300     E  	add a,rb
 102  0039  0083        	mov mp,a
 102  003A  1F05        	clr acc
 102  003B  1300     E  	adc a,rc
 102  003C  0081        	mov sbp,a
 102  003D  0701        	mov a,sbp
 102  003E  0084        	mov bp,a
 102  003F  0700     E  	mov a,ra
 102  0040  0082        	mov ir,a
 100  0041              #line 100 "C:\Users\my asus\Desktop\BS83B08-12-16A\BS83B12A - v1.0\20160607_LIBV413\USER_PROGRAM\USER_PROGRAM.C"
 100  0041  1480     R  	inc _I2C[3]
 100  0042              _L7:
 100  0042  0700     R  	mov a,_I2C[3]
 100  0043  0200     R  	sub a,_I2C[1]
 100  0044  380A        	snz c
 100  0045  2800     R  	jmp _L8
 100  0046  0003        	ret
 100  0047              _DATA_LIST_UPDATA endp
 100  0047              #line 100 "C:\Users\my asus\Desktop\BS83B08-12-16A\BS83B12A - v1.0\20160607_LIBV413\USER_PROGRAM\USER_PROGRAM.C"
 100  0047              #pragma debug scope 1 1
 100  0047              public _I2C_LIST_INIT
 100  0047              #pragma debug scope 3 1
 109  0047              #line 109 "C:\Users\my asus\Desktop\BS83B08-12-16A\BS83B12A - v1.0\20160607_LIBV413\USER_PROGRAM\USER_PROGRAM.C"
 109  0000              _I2C_LIST_INIT .section 'code'
 109  0000              _I2C_LIST_INIT proc
 110  0000              #line 110 "C:\Users\my asus\Desktop\BS83B08-12-16A\BS83B12A - v1.0\20160607_LIBV413\USER_PROGRAM\USER_PROGRAM.C"
 110  0000  1F00     R  	clr _I2C[0]
 111  0001              #line 111 "C:\Users\my asus\Desktop\BS83B08-12-16A\BS83B12A - v1.0\20160607_LIBV413\USER_PROGRAM\USER_PROGRAM.C"
 111  0001  1F00     R  	clr _I2C[1]
 112  0002              #line 112 "C:\Users\my asus\Desktop\BS83B08-12-16A\BS83B12A - v1.0\20160607_LIBV413\USER_PROGRAM\USER_PROGRAM.C"
 112  0002  1F00     R  	clr _I2C[3]
 113  0003              #line 113 "C:\Users\my asus\Desktop\BS83B08-12-16A\BS83B12A - v1.0\20160607_LIBV413\USER_PROGRAM\USER_PROGRAM.C"
 113  0003  1F00     R  	clr _I2C[2]
 114  0004              #line 114 "C:\Users\my asus\Desktop\BS83B08-12-16A\BS83B12A - v1.0\20160607_LIBV413\USER_PROGRAM\USER_PROGRAM.C"
 114  0004  1F00     R  	clr _I2C[4]
 115  0005              #line 115 "C:\Users\my asus\Desktop\BS83B08-12-16A\BS83B12A - v1.0\20160607_LIBV413\USER_PROGRAM\USER_PROGRAM.C"
 115  0005  1F00     R  	clr _I2C[5]
 116  0006              #line 116 "C:\Users\my asus\Desktop\BS83B08-12-16A\BS83B12A - v1.0\20160607_LIBV413\USER_PROGRAM\USER_PROGRAM.C"
 116  0006  3400     R  	clr _FLAG[0].1
 117  0007              #line 117 "C:\Users\my asus\Desktop\BS83B08-12-16A\BS83B12A - v1.0\20160607_LIBV413\USER_PROGRAM\USER_PROGRAM.C"
 117  0007  3400     R  	clr _FLAG[0].0
 117  0008  0003        	ret
 117  0009              _I2C_LIST_INIT endp
文件：USER_PROGRAM.C 编译器版本 HGASM 0202 页次4

 117  0009              #line 117 "C:\Users\my asus\Desktop\BS83B08-12-16A\BS83B12A - v1.0\20160607_LIBV413\USER_PROGRAM\USER_PROGRAM.C"
 117  0009              #pragma debug scope 1 1
 117  0009              public _SYS_LIST_INIT
 117  0009              #pragma debug scope 4 1
 122  0009              #line 122 "C:\Users\my asus\Desktop\BS83B08-12-16A\BS83B12A - v1.0\20160607_LIBV413\USER_PROGRAM\USER_PROGRAM.C"
 122  0000              _SYS_LIST_INIT .section 'code'
 122  0000              _SYS_LIST_INIT proc
 123  0000              #line 123 "C:\Users\my asus\Desktop\BS83B08-12-16A\BS83B12A - v1.0\20160607_LIBV413\USER_PROGRAM\USER_PROGRAM.C"
 123  0000  0F0F        	mov a,15
 123  0001  0080     R  	mov _MCU_STATE[0],a
 124  0002              #line 124 "C:\Users\my asus\Desktop\BS83B08-12-16A\BS83B12A - v1.0\20160607_LIBV413\USER_PROGRAM\USER_PROGRAM.C"
 124  0002  0F0F        	mov a,15
 124  0003  0080     R  	mov _I2C_STATE[0],a
 126  0004              #line 126 "C:\Users\my asus\Desktop\BS83B08-12-16A\BS83B12A - v1.0\20160607_LIBV413\USER_PROGRAM\USER_PROGRAM.C"
 126  0004  3000     R  	set _FLAG[0].0
 126  0005  0003        	ret
 126  0006              _SYS_LIST_INIT endp
 126  0006              #line 126 "C:\Users\my asus\Desktop\BS83B08-12-16A\BS83B12A - v1.0\20160607_LIBV413\USER_PROGRAM\USER_PROGRAM.C"
 126  0006              #pragma debug scope 1 1
 126  0006              ___wdtc equ [26]
 126  0006              ___pawu equ [23]
 126  0006              ___papu equ [22]
 126  0006              ___pa equ [20]
 126  0006              ___pac equ [21]
 126  0006              ___simc0 equ [36]
 126  0006              ___sima equ [39]
 126  0006              ___i2ctoc equ [35]
 126  0006              ___intc1 equ [15]
 126  0006              ___intc0 equ [14]
 126  0006              public _USER_PROGRAM_INITIAL
 126  0006              #pragma debug scope 5 1
 131  0006              #line 131 "C:\Users\my asus\Desktop\BS83B08-12-16A\BS83B12A - v1.0\20160607_LIBV413\USER_PROGRAM\USER_PROGRAM.C"
 131  0000              _USER_PROGRAM_INITIAL .section 'code'
 131  0000              _USER_PROGRAM_INITIAL proc
 133  0000              #line 133 "C:\Users\my asus\Desktop\BS83B08-12-16A\BS83B12A - v1.0\20160607_LIBV413\USER_PROGRAM\USER_PROGRAM.C"
 133  0000  0FAC        	mov a,172
 133  0001  009A        	mov [26],a
 135  0002              #line 135 "C:\Users\my asus\Desktop\BS83B08-12-16A\BS83B12A - v1.0\20160607_LIBV413\USER_PROGRAM\USER_PROGRAM.C"
 135  0002  1F17        	clr [23]
 136  0003              #line 136 "C:\Users\my asus\Desktop\BS83B08-12-16A\BS83B12A - v1.0\20160607_LIBV413\USER_PROGRAM\USER_PROGRAM.C"
 136  0003  1F16        	clr [22]
 137  0004              #line 137 "C:\Users\my asus\Desktop\BS83B08-12-16A\BS83B12A - v1.0\20160607_LIBV413\USER_PROGRAM\USER_PROGRAM.C"
 137  0004  1F14        	clr [20]
 138  0005              #line 138 "C:\Users\my asus\Desktop\BS83B08-12-16A\BS83B12A - v1.0\20160607_LIBV413\USER_PROGRAM\USER_PROGRAM.C"
 138  0005  3094        	set [20].1
 139  0006              #line 139 "C:\Users\my asus\Desktop\BS83B08-12-16A\BS83B12A - v1.0\20160607_LIBV413\USER_PROGRAM\USER_PROGRAM.C"
 139  0006  0F05        	mov a,5
 139  0007  0095        	mov [21],a
 142  0008              #line 142 "C:\Users\my asus\Desktop\BS83B08-12-16A\BS83B12A - v1.0\20160607_LIBV413\USER_PROGRAM\USER_PROGRAM.C"
 142  0008  3094        	set [20].1
 143  0009              #line 143 "C:\Users\my asus\Desktop\BS83B08-12-16A\BS83B12A - v1.0\20160607_LIBV413\USER_PROGRAM\USER_PROGRAM.C"
 143  0009  3495        	clr [21].1
 156  000A              #line 156 "C:\Users\my asus\Desktop\BS83B08-12-16A\BS83B12A - v1.0\20160607_LIBV413\USER_PROGRAM\USER_PROGRAM.C"
 156  000A  0FC2        	mov a,194
 156  000B  00A4        	mov [36],a
 157  000C              #line 157 "C:\Users\my asus\Desktop\BS83B08-12-16A\BS83B12A - v1.0\20160607_LIBV413\USER_PROGRAM\USER_PROGRAM.C"
 157  000C  0F28        	mov a,40
 157  000D  00A7        	mov [39],a
 160  000E              #line 160 "C:\Users\my asus\Desktop\BS83B08-12-16A\BS83B12A - v1.0\20160607_LIBV413\USER_PROGRAM\USER_PROGRAM.C"
 160  000E  0FBF        	mov a,191
文件：USER_PROGRAM.C 编译器版本 HGASM 0202 页次5

 160  000F  00A3        	mov [35],a
 161  0010              #line 161 "C:\Users\my asus\Desktop\BS83B08-12-16A\BS83B12A - v1.0\20160607_LIBV413\USER_PROGRAM\USER_PROGRAM.C"
 161  0010  360F        	clr [15].4
 162  0011              #line 162 "C:\Users\my asus\Desktop\BS83B08-12-16A\BS83B12A - v1.0\20160607_LIBV413\USER_PROGRAM\USER_PROGRAM.C"
 162  0011  300F        	set [15].0
 164  0012              #line 164 "C:\Users\my asus\Desktop\BS83B08-12-16A\BS83B12A - v1.0\20160607_LIBV413\USER_PROGRAM\USER_PROGRAM.C"
 164  0012  2000     R  	call _SYS_LIST_INIT
 166  0013              #line 166 "C:\Users\my asus\Desktop\BS83B08-12-16A\BS83B12A - v1.0\20160607_LIBV413\USER_PROGRAM\USER_PROGRAM.C"
 166  0013  300E        	set [14].0
 166  0014  0003        	ret
 166  0015              _USER_PROGRAM_INITIAL endp
 166  0015              #line 166 "C:\Users\my asus\Desktop\BS83B08-12-16A\BS83B12A - v1.0\20160607_LIBV413\USER_PROGRAM\USER_PROGRAM.C"
 166  0015              #pragma debug scope 1 1
 166  0015              public _USER_PROGRAM
 166  0015              #pragma debug scope 6 1
 173  0015              #line 173 "C:\Users\my asus\Desktop\BS83B08-12-16A\BS83B12A - v1.0\20160607_LIBV413\USER_PROGRAM\USER_PROGRAM.C"
 173  0000              _USER_PROGRAM .section 'code'
 173  0000              _USER_PROGRAM proc
 174  0000              #line 174 "C:\Users\my asus\Desktop\BS83B08-12-16A\BS83B12A - v1.0\20160607_LIBV413\USER_PROGRAM\USER_PROGRAM.C"
 174  0000  0700     R  	mov a,_MCU_STATE[0]
 174  0001  0A0A        	sub a,10
 174  0002  390A        	snz z
 174  0003  2800     R  	jmp _L17
 176  0004              #line 176 "C:\Users\my asus\Desktop\BS83B08-12-16A\BS83B12A - v1.0\20160607_LIBV413\USER_PROGRAM\USER_PROGRAM.C"
 176  0004  3494        	clr [20].1
 177  0005              #line 177 "C:\Users\my asus\Desktop\BS83B08-12-16A\BS83B12A - v1.0\20160607_LIBV413\USER_PROGRAM\USER_PROGRAM.C"
 177  0005  1F9A        	set [26]
 177  0006  2800     R  	jmp _L18
 177  0007              _L17:
 181  0007              #line 181 "C:\Users\my asus\Desktop\BS83B08-12-16A\BS83B12A - v1.0\20160607_LIBV413\USER_PROGRAM\USER_PROGRAM.C"
 181  0007  0F0F        	mov a,15
 181  0008  0080     R  	mov _MCU_STATE[0],a
 181  0009              _L18:
 184  0009              #line 184 "C:\Users\my asus\Desktop\BS83B08-12-16A\BS83B12A - v1.0\20160607_LIBV413\USER_PROGRAM\USER_PROGRAM.C"
 184  0009  3800     R  	snz _FLAG[0].0
 184  000A  2800     R  	jmp _L19
 186  000B              #line 186 "C:\Users\my asus\Desktop\BS83B08-12-16A\BS83B12A - v1.0\20160607_LIBV413\USER_PROGRAM\USER_PROGRAM.C"
 186  000B  2000     R  	call _I2C_LIST_INIT
 186  000C              _L19:
 189  000C              #line 189 "C:\Users\my asus\Desktop\BS83B08-12-16A\BS83B12A - v1.0\20160607_LIBV413\USER_PROGRAM\USER_PROGRAM.C"
 189  000C  2000     E  	call _GET_KEY_BITMAP
 192  000D              #line 192 "C:\Users\my asus\Desktop\BS83B08-12-16A\BS83B12A - v1.0\20160607_LIBV413\USER_PROGRAM\USER_PROGRAM.C"
 192  000D  0700     E  	mov a,_KEY_IO_SEL[0]
 192  000E  0600     E  	and a,_KEY_DATA[0]
 192  000F  0080     E  	mov rb,a
 192  0010  0700     E  	mov a,rb
 192  0011  0080     E  	mov _KEY_DATA[0],a
 193  0012              #line 193 "C:\Users\my asus\Desktop\BS83B08-12-16A\BS83B12A - v1.0\20160607_LIBV413\USER_PROGRAM\USER_PROGRAM.C"
 193  0012  0700     E  	mov a,_KEY_IO_SEL[1]
 193  0013  0600     E  	and a,_KEY_DATA[1]
 193  0014  0080     E  	mov ra,a
 193  0015  0700     E  	mov a,ra
 193  0016  0080     E  	mov _KEY_DATA[1],a
 195  0017              #line 195 "C:\Users\my asus\Desktop\BS83B08-12-16A\BS83B12A - v1.0\20160607_LIBV413\USER_PROGRAM\USER_PROGRAM.C"
 195  0017  1080     E  	sz rb
 195  0018  2800     R  	jmp _L20
 195  0019  1080     E  	sz ra
 195  001A  2800     R  	jmp _LI1
 195  001B  2800     R  	jmp _L21
 195  001C              _LI1:
文件：USER_PROGRAM.C 编译器版本 HGASM 0202 页次6

 195  001C              _L20:
 196  001C              #line 196 "C:\Users\my asus\Desktop\BS83B08-12-16A\BS83B12A - v1.0\20160607_LIBV413\USER_PROGRAM\USER_PROGRAM.C"
 196  001C  3494        	clr [20].1
 196  001D  2800     R  	jmp _L22
 196  001E              _L21:
 198  001E              #line 198 "C:\Users\my asus\Desktop\BS83B08-12-16A\BS83B12A - v1.0\20160607_LIBV413\USER_PROGRAM\USER_PROGRAM.C"
 198  001E  3094        	set [20].1
 198  001F              _L22:
 213  001F              #line 213 "C:\Users\my asus\Desktop\BS83B08-12-16A\BS83B12A - v1.0\20160607_LIBV413\USER_PROGRAM\USER_PROGRAM.C"
 213  001F  3800     R  	snz _FLAG[0].1
 213  0020  2800     R  	jmp _L16
 216  0021              #line 216 "C:\Users\my asus\Desktop\BS83B08-12-16A\BS83B12A - v1.0\20160607_LIBV413\USER_PROGRAM\USER_PROGRAM.C"
 216  0021  1100     R  	swapa _I2C[0]
 216  0022  0E0F        	and a,0fh
 216  0023  0080     R  	mov _I2C[0],a
 217  0024              #line 217 "C:\Users\my asus\Desktop\BS83B08-12-16A\BS83B12A - v1.0\20160607_LIBV413\USER_PROGRAM\USER_PROGRAM.C"
 217  0024  0FF6        	mov a,246
 217  0025  0380     R  	addm a,_I2C[0]
 219  0026              #line 219 "C:\Users\my asus\Desktop\BS83B08-12-16A\BS83B12A - v1.0\20160607_LIBV413\USER_PROGRAM\USER_PROGRAM.C"
 219  0026  0FFE        	mov a,254
 219  0027  0380     R  	addm a,_I2C[3]
 222  0028              #line 222 "C:\Users\my asus\Desktop\BS83B08-12-16A\BS83B12A - v1.0\20160607_LIBV413\USER_PROGRAM\USER_PROGRAM.C"
 222  0028  0F03        	mov a,3
 222  0029  0200     R  	sub a,_I2C[0]
 222  002A  380A        	snz c
 222  002B  2800     R  	jmp _L24
 222  002C  0F00     R  	mov a,low offset _IC_PAGE_SIZS
 222  002D  0300     R  	add a,_I2C[0]
 222  002E  0083        	mov mp,a
 222  002F  0F00     R  	mov a,high offset _IC_PAGE_SIZS
 222  0030  1F01        	clr sbp
 222  0031  1381        	adcm a,sbp
 222  0032  2000     E  	call _Crom2Prom
 222  0033  0080     E  	mov ra,a
 222  0034  0700     R  	mov a,_I2C[3]
 222  0035  0200     E  	sub a,ra
 222  0036  390A        	snz z
 222  0037  2800     R  	jmp _L24
 224  0038              #line 224 "C:\Users\my asus\Desktop\BS83B08-12-16A\BS83B12A - v1.0\20160607_LIBV413\USER_PROGRAM\USER_PROGRAM.C"
 224  0038  0100     R  	cpla _I2C[5]
 224  0039  0080     R  	mov _I2C[5],a
 226  003A              #line 226 "C:\Users\my asus\Desktop\BS83B08-12-16A\BS83B12A - v1.0\20160607_LIBV413\USER_PROGRAM\USER_PROGRAM.C"
 226  003A  0700     R  	mov a,_I2C[4]
 226  003B  0200     R  	sub a,_I2C[5]
 226  003C  390A        	snz z
 226  003D  2800     R  	jmp _L24
 228  003E              #line 228 "C:\Users\my asus\Desktop\BS83B08-12-16A\BS83B12A - v1.0\20160607_LIBV413\USER_PROGRAM\USER_PROGRAM.C"
 228  003E  0F01        	mov a,1
 228  003F  0080     R  	mov _I2C_STATE[0],a
 230  0040              #line 230 "C:\Users\my asus\Desktop\BS83B08-12-16A\BS83B12A - v1.0\20160607_LIBV413\USER_PROGRAM\USER_PROGRAM.C"
 230  0040  2000     R  	call _DATA_LIST_UPDATA
 230  0041  2800     R  	jmp _L26
 230  0042              _L24:
 235  0042              #line 235 "C:\Users\my asus\Desktop\BS83B08-12-16A\BS83B12A - v1.0\20160607_LIBV413\USER_PROGRAM\USER_PROGRAM.C"
 235  0042  1F00     R  	clr _I2C_STATE[0]
 235  0043              _L26:
 237  0043              #line 237 "C:\Users\my asus\Desktop\BS83B08-12-16A\BS83B12A - v1.0\20160607_LIBV413\USER_PROGRAM\USER_PROGRAM.C"
 237  0043  3400     R  	clr _FLAG[0].1
 237  0044              _L16:
 237  0044  0003        	ret
文件：USER_PROGRAM.C 编译器版本 HGASM 0202 页次7

 237  0045              _USER_PROGRAM endp
 237  0045              #line 237 "C:\Users\my asus\Desktop\BS83B08-12-16A\BS83B12A - v1.0\20160607_LIBV413\USER_PROGRAM\USER_PROGRAM.C"
 237  0045              #pragma debug scope 1 1
 237  0045              ___simc1 equ [37]
 237  0045              ___simd equ [38]
 237  0045              ___acc equ [5]
 237  0045              public _IIC_ISR
 237  0045              #pragma debug scope 7 1
 246  0045              #line 246 "C:\Users\my asus\Desktop\BS83B08-12-16A\BS83B12A - v1.0\20160607_LIBV413\USER_PROGRAM\USER_PROGRAM.C"
 246  0000              @IIC_ISR_code .section at 16 'code'
 246  0000  0080     E  	mov r1,a
 246  0001  0704        	mov a,bp
 246  0002  0080     E  	mov r2,a
 246  0003  2800     R  	jmp _IIC_ISR
 246  0004              #pragma debug scope 1 1
 246  0004              @dummy16 endp
 246  0004              #pragma debug scope 8 1
 246  0000              _IIC_ISR .section 'code'
 246  0000              _IIC_ISR proc
 246  0000  00          local _IIC_ISR_2 db 1 dup(?)
 246  0000  070A        	mov a,status
 246  0001  0080     E  	mov r3,a
 246  0002  0703        	mov a,mp
 246  0003  0080     E  	mov r4,a
 246  0004  0701        	mov a,sbp
 246  0005  0080     E  	mov r5,a
 248  0006              #line 248 "C:\Users\my asus\Desktop\BS83B08-12-16A\BS83B12A - v1.0\20160607_LIBV413\USER_PROGRAM\USER_PROGRAM.C"
 248  0006  360F        	clr [15].4
 249  0007              #line 249 "C:\Users\my asus\Desktop\BS83B08-12-16A\BS83B12A - v1.0\20160607_LIBV413\USER_PROGRAM\USER_PROGRAM.C"
 249  0007  3B23        	snz [35].6
 249  0008  2800     R  	jmp _L34
 251  0009              #line 251 "C:\Users\my asus\Desktop\BS83B08-12-16A\BS83B12A - v1.0\20160607_LIBV413\USER_PROGRAM\USER_PROGRAM.C"
 251  0009  33A3        	set [35].7
 252  000A              #line 252 "C:\Users\my asus\Desktop\BS83B08-12-16A\BS83B12A - v1.0\20160607_LIBV413\USER_PROGRAM\USER_PROGRAM.C"
 252  000A  3723        	clr [35].6
 253  000B              #line 253 "C:\Users\my asus\Desktop\BS83B08-12-16A\BS83B12A - v1.0\20160607_LIBV413\USER_PROGRAM\USER_PROGRAM.C"
 253  000B  3000     R  	set _FLAG[0].0
 253  000C  2800     R  	jmp _L33
 253  000D              _L34:
 257  000D              #line 257 "C:\Users\my asus\Desktop\BS83B08-12-16A\BS83B12A - v1.0\20160607_LIBV413\USER_PROGRAM\USER_PROGRAM.C"
 257  000D  3B25        	snz [37].6
 257  000E  2800     R  	jmp _L36
 261  000F              #line 261 "C:\Users\my asus\Desktop\BS83B08-12-16A\BS83B12A - v1.0\20160607_LIBV413\USER_PROGRAM\USER_PROGRAM.C"
 261  000F  3925        	snz [37].2
 261  0010  2800     R  	jmp _L37
 264  0011              #line 264 "C:\Users\my asus\Desktop\BS83B08-12-16A\BS83B12A - v1.0\20160607_LIBV413\USER_PROGRAM\USER_PROGRAM.C"
 264  0011  1080     R  	sz _I2C[0]
 264  0012  2800     R  	jmp _L38
 266  0013              #line 266 "C:\Users\my asus\Desktop\BS83B08-12-16A\BS83B12A - v1.0\20160607_LIBV413\USER_PROGRAM\USER_PROGRAM.C"
 266  0013  0F03        	mov a,3
 266  0014  0080     R  	mov _I2C[1],a
 267  0015              #line 267 "C:\Users\my asus\Desktop\BS83B08-12-16A\BS83B12A - v1.0\20160607_LIBV413\USER_PROGRAM\USER_PROGRAM.C"
 267  0015  0FA0        	mov a,160
 267  0016  0080     R  	mov _I2C[2],a
 268  0017              #line 268 "C:\Users\my asus\Desktop\BS83B08-12-16A\BS83B12A - v1.0\20160607_LIBV413\USER_PROGRAM\USER_PROGRAM.C"
 268  0017  1F00     R  	clr _I2C[5]
 268  0018              _L38:
 272  0018              #line 272 "C:\Users\my asus\Desktop\BS83B08-12-16A\BS83B12A - v1.0\20160607_LIBV413\USER_PROGRAM\USER_PROGRAM.C"
 272  0018  0700     R  	mov a,_I2C[2]
 272  0019  0080     R  	mov _IIC_ISR_2[0],a
文件：USER_PROGRAM.C 编译器版本 HGASM 0202 页次8

 272  001A  0700     R  	mov a,_IIC_ISR_2[0]
 272  001B  0AA0        	sub a,160
 272  001C  3D0A        	sz z
 272  001D  2800     R  	jmp _L40
 272  001E  0A10        	sub a,(176)-(160)
 272  001F  3D0A        	sz z
 272  0020  2800     R  	jmp _L41
 272  0021  0700     R  	mov a,_IIC_ISR_2[0]
 272  0022  0AC0        	sub a,192
 272  0023  3D0A        	sz z
 272  0024  2800     R  	jmp _L42
 272  0025  0A10        	sub a,(208)-(192)
 272  0026  3D0A        	sz z
 272  0027  2800     R  	jmp _L43
 272  0028  0700     R  	mov a,_IIC_ISR_2[0]
 272  0029  0AE0        	sub a,224
 272  002A  3D0A        	sz z
 272  002B  2800     R  	jmp _L44
 272  002C  0700     R  	mov a,_IIC_ISR_2[0]
 272  002D  0AF0        	sub a,240
 272  002E  390A        	snz z
 272  002F  2800     R  	jmp _L79
 279  0030              #line 279 "C:\Users\my asus\Desktop\BS83B08-12-16A\BS83B12A - v1.0\20160607_LIBV413\USER_PROGRAM\USER_PROGRAM.C"
 279  0030  0700     R  	mov a,_I2C_STATE[0]
 279  0031  0080     E  	mov ra,a
 279  0032  0F0F        	mov a,15
 279  0033  0080     R  	mov _I2C_STATE[0],a
 279  0034  2800     R  	jmp _L39
 279  0035              _L40:
 274  0035              #line 274 "C:\Users\my asus\Desktop\BS83B08-12-16A\BS83B12A - v1.0\20160607_LIBV413\USER_PROGRAM\USER_PROGRAM.C"
 274  0035  0700     E  	mov a,_GLOBE_VARIES[0]
 274  0036  0080     E  	mov ra,a
 274  0037  2800     R  	jmp _L39
 274  0038              _L41:
 275  0038              #line 275 "C:\Users\my asus\Desktop\BS83B08-12-16A\BS83B12A - v1.0\20160607_LIBV413\USER_PROGRAM\USER_PROGRAM.C"
 275  0038  0700     E  	mov a,_GLOBE_VARIES[3]
 275  0039  0080     E  	mov ra,a
 275  003A  2800     R  	jmp _L39
 275  003B              _L42:
 276  003B              #line 276 "C:\Users\my asus\Desktop\BS83B08-12-16A\BS83B12A - v1.0\20160607_LIBV413\USER_PROGRAM\USER_PROGRAM.C"
 276  003B  0700     E  	mov a,_KEY_IO_SEL[0]
 276  003C  0080     E  	mov ra,a
 276  003D  2800     R  	jmp _L39
 276  003E              _L43:
 277  003E              #line 277 "C:\Users\my asus\Desktop\BS83B08-12-16A\BS83B12A - v1.0\20160607_LIBV413\USER_PROGRAM\USER_PROGRAM.C"
 277  003E  0700     R  	mov a,_MCU_STATE[0]
 277  003F  0080     E  	mov ra,a
 277  0040  2800     R  	jmp _L39
 277  0041              _L44:
 278  0041              #line 278 "C:\Users\my asus\Desktop\BS83B08-12-16A\BS83B12A - v1.0\20160607_LIBV413\USER_PROGRAM\USER_PROGRAM.C"
 278  0041  0700     E  	mov a,_KEY_DATA[0]
 278  0042  0080     E  	mov ra,a
 278  0043  2800     R  	jmp _L39
 278  0044              _L79:
 280  0044              #line 280 "C:\Users\my asus\Desktop\BS83B08-12-16A\BS83B12A - v1.0\20160607_LIBV413\USER_PROGRAM\USER_PROGRAM.C"
 280  0044  0FAA        	mov a,170
 280  0045  0080     E  	mov ra,a
 280  0046              _L39:
 282  0046              #line 282 "C:\Users\my asus\Desktop\BS83B08-12-16A\BS83B12A - v1.0\20160607_LIBV413\USER_PROGRAM\USER_PROGRAM.C"
 282  0046  3225        	set [37].4
文件：USER_PROGRAM.C 编译器版本 HGASM 0202 页次9

 283  0047              #line 283 "C:\Users\my asus\Desktop\BS83B08-12-16A\BS83B12A - v1.0\20160607_LIBV413\USER_PROGRAM\USER_PROGRAM.C"
 283  0047  0700     E  	mov a,ra
 283  0048  00A6        	mov [38],a
 285  0049              #line 285 "C:\Users\my asus\Desktop\BS83B08-12-16A\BS83B12A - v1.0\20160607_LIBV413\USER_PROGRAM\USER_PROGRAM.C"
 285  0049  0700     E  	mov a,ra
 285  004A  0380     R  	addm a,_I2C[5]
 287  004B              #line 287 "C:\Users\my asus\Desktop\BS83B08-12-16A\BS83B12A - v1.0\20160607_LIBV413\USER_PROGRAM\USER_PROGRAM.C"
 287  004B  0700     R  	mov a,_I2C[2]
 287  004C  0380     R  	addm a,_I2C[1]
 287  004D  2800     R  	jmp _L85
 287  004E              _L37:
 295  004E              #line 295 "C:\Users\my asus\Desktop\BS83B08-12-16A\BS83B12A - v1.0\20160607_LIBV413\USER_PROGRAM\USER_PROGRAM.C"
 295  004E  3625        	clr [37].4
 296  004F              #line 296 "C:\Users\my asus\Desktop\BS83B08-12-16A\BS83B12A - v1.0\20160607_LIBV413\USER_PROGRAM\USER_PROGRAM.C"
 296  004F  35A5        	clr [37].3
 297  0050              #line 297 "C:\Users\my asus\Desktop\BS83B08-12-16A\BS83B12A - v1.0\20160607_LIBV413\USER_PROGRAM\USER_PROGRAM.C"
 297  0050  0726        	mov a,[38]
 297  0051  0085        	mov [5],a
 299  0052              #line 299 "C:\Users\my asus\Desktop\BS83B08-12-16A\BS83B12A - v1.0\20160607_LIBV413\USER_PROGRAM\USER_PROGRAM.C"
 299  0052  1F00     R  	clr _I2C[3]
 300  0053              #line 300 "C:\Users\my asus\Desktop\BS83B08-12-16A\BS83B12A - v1.0\20160607_LIBV413\USER_PROGRAM\USER_PROGRAM.C"
 300  0053  1F00     R  	clr _I2C[2]
 301  0054              #line 301 "C:\Users\my asus\Desktop\BS83B08-12-16A\BS83B12A - v1.0\20160607_LIBV413\USER_PROGRAM\USER_PROGRAM.C"
 301  0054  1F00     R  	clr _I2C[1]
 302  0055              #line 302 "C:\Users\my asus\Desktop\BS83B08-12-16A\BS83B12A - v1.0\20160607_LIBV413\USER_PROGRAM\USER_PROGRAM.C"
 302  0055  3400     R  	clr _FLAG[0].1
 302  0056  2800     R  	jmp _L33
 302  0057              _L36:
 308  0057              #line 308 "C:\Users\my asus\Desktop\BS83B08-12-16A\BS83B12A - v1.0\20160607_LIBV413\USER_PROGRAM\USER_PROGRAM.C"
 308  0057  3A25        	snz [37].4
 308  0058  2800     R  	jmp _L47
 310  0059              #line 310 "C:\Users\my asus\Desktop\BS83B08-12-16A\BS83B12A - v1.0\20160607_LIBV413\USER_PROGRAM\USER_PROGRAM.C"
 310  0059  3825        	snz [37].0
 310  005A  2800     R  	jmp _L48
 312  005B              #line 312 "C:\Users\my asus\Desktop\BS83B08-12-16A\BS83B12A - v1.0\20160607_LIBV413\USER_PROGRAM\USER_PROGRAM.C"
 312  005B  3625        	clr [37].4
 313  005C              #line 313 "C:\Users\my asus\Desktop\BS83B08-12-16A\BS83B12A - v1.0\20160607_LIBV413\USER_PROGRAM\USER_PROGRAM.C"
 313  005C  35A5        	clr [37].3
 314  005D              #line 314 "C:\Users\my asus\Desktop\BS83B08-12-16A\BS83B12A - v1.0\20160607_LIBV413\USER_PROGRAM\USER_PROGRAM.C"
 314  005D  0726        	mov a,[38]
 314  005E  0085        	mov [5],a
 316  005F              #line 316 "C:\Users\my asus\Desktop\BS83B08-12-16A\BS83B12A - v1.0\20160607_LIBV413\USER_PROGRAM\USER_PROGRAM.C"
 316  005F  1F00     R  	clr _I2C[0]
 317  0060              #line 317 "C:\Users\my asus\Desktop\BS83B08-12-16A\BS83B12A - v1.0\20160607_LIBV413\USER_PROGRAM\USER_PROGRAM.C"
 317  0060  1F00     R  	clr _I2C[1]
 318  0061              #line 318 "C:\Users\my asus\Desktop\BS83B08-12-16A\BS83B12A - v1.0\20160607_LIBV413\USER_PROGRAM\USER_PROGRAM.C"
 318  0061  1F00     R  	clr _I2C[2]
 318  0062  2800     R  	jmp _L33
 318  0063              _L48:
 323  0063              #line 323 "C:\Users\my asus\Desktop\BS83B08-12-16A\BS83B12A - v1.0\20160607_LIBV413\USER_PROGRAM\USER_PROGRAM.C"
 323  0063  0700     R  	mov a,_I2C[2]
 323  0064  0080     R  	mov _IIC_ISR_2[0],a
 323  0065  0700     R  	mov a,_IIC_ISR_2[0]
 323  0066  0AA1        	sub a,161
 323  0067  3D0A        	sz z
 323  0068  2800     R  	jmp _L50
 323  0069  0A01        	sub a,(162)-(161)
 323  006A  3D0A        	sz z
 323  006B  2800     R  	jmp _L51
 323  006C  0700     R  	mov a,_IIC_ISR_2[0]
文件：USER_PROGRAM.C 编译器版本 HGASM 0202 页次10

 323  006D  0AB1        	sub a,177
 323  006E  3D0A        	sz z
 323  006F  2800     R  	jmp _L52
 323  0070  0A01        	sub a,(178)-(177)
 323  0071  3D0A        	sz z
 323  0072  2800     R  	jmp _L53
 323  0073  0700     R  	mov a,_IIC_ISR_2[0]
 323  0074  0AB3        	sub a,179
 323  0075  3D0A        	sz z
 323  0076  2800     R  	jmp _L54
 323  0077  0A01        	sub a,(180)-(179)
 323  0078  3D0A        	sz z
 323  0079  2800     R  	jmp _L55
 323  007A  0700     R  	mov a,_IIC_ISR_2[0]
 323  007B  0AB5        	sub a,181
 323  007C  3D0A        	sz z
 323  007D  2800     R  	jmp _L56
 323  007E  0A01        	sub a,(182)-(181)
 323  007F  3D0A        	sz z
 323  0080  2800     R  	jmp _L57
 323  0081  0700     R  	mov a,_IIC_ISR_2[0]
 323  0082  0AB7        	sub a,183
 323  0083  3D0A        	sz z
 323  0084  2800     R  	jmp _L58
 323  0085  0A01        	sub a,(184)-(183)
 323  0086  3D0A        	sz z
 323  0087  2800     R  	jmp _L59
 323  0088  0700     R  	mov a,_IIC_ISR_2[0]
 323  0089  0AB9        	sub a,185
 323  008A  3D0A        	sz z
 323  008B  2800     R  	jmp _L60
 323  008C  0A01        	sub a,(186)-(185)
 323  008D  3D0A        	sz z
 323  008E  2800     R  	jmp _L61
 323  008F  0700     R  	mov a,_IIC_ISR_2[0]
 323  0090  0ABB        	sub a,187
 323  0091  3D0A        	sz z
 323  0092  2800     R  	jmp _L62
 323  0093  0A06        	sub a,(193)-(187)
 323  0094  3D0A        	sz z
 323  0095  2800     R  	jmp _L63
 323  0096  0700     R  	mov a,_IIC_ISR_2[0]
 323  0097  0AE1        	sub a,225
 323  0098  3D0A        	sz z
 323  0099  2800     R  	jmp _L64
 323  009A  0A10        	sub a,(241)-(225)
 323  009B  3D0A        	sz z
 323  009C  2800     R  	jmp _L65
 323  009D  1600     R  	siza _IIC_ISR_2[0]
 323  009E  2800     R  	jmp _L80
 361  009F              #line 361 "C:\Users\my asus\Desktop\BS83B08-12-16A\BS83B12A - v1.0\20160607_LIBV413\USER_PROGRAM\USER_PROGRAM.C"
 361  009F  0100     R  	cpla _I2C[5]
 361  00A0  0080     E  	mov ra,a
 361  00A1  2800     R  	jmp _L49
 361  00A2              _L65:
 360  00A2              #line 360 "C:\Users\my asus\Desktop\BS83B08-12-16A\BS83B12A - v1.0\20160607_LIBV413\USER_PROGRAM\USER_PROGRAM.C"
 360  00A2  0F1C        	mov a,28
 360  00A3  0080     E  	mov ra,a
 360  00A4  2800     R  	jmp _L49
 360  00A5              _L50:
文件：USER_PROGRAM.C 编译器版本 HGASM 0202 页次11

 327  00A5              #line 327 "C:\Users\my asus\Desktop\BS83B08-12-16A\BS83B12A - v1.0\20160607_LIBV413\USER_PROGRAM\USER_PROGRAM.C"
 327  00A5  0700     E  	mov a,_GLOBE_VARIES[1]
 327  00A6  0080     E  	mov ra,a
 327  00A7  2800     R  	jmp _L49
 327  00A8              _L51:
 328  00A8              #line 328 "C:\Users\my asus\Desktop\BS83B08-12-16A\BS83B12A - v1.0\20160607_LIBV413\USER_PROGRAM\USER_PROGRAM.C"
 328  00A8  0700     E  	mov a,_GLOBE_VARIES[2]
 328  00A9  0080     E  	mov ra,a
 328  00AA  2800     R  	jmp _L49
 328  00AB              _L52:
 330  00AB              #line 330 "C:\Users\my asus\Desktop\BS83B08-12-16A\BS83B12A - v1.0\20160607_LIBV413\USER_PROGRAM\USER_PROGRAM.C"
 330  00AB  0700     E  	mov a,_GLOBE_VARIES[4]
 330  00AC  0080     E  	mov ra,a
 330  00AD  2800     R  	jmp _L49
 330  00AE              _L53:
 331  00AE              #line 331 "C:\Users\my asus\Desktop\BS83B08-12-16A\BS83B12A - v1.0\20160607_LIBV413\USER_PROGRAM\USER_PROGRAM.C"
 331  00AE  0700     E  	mov a,_GLOBE_VARIES[5]
 331  00AF  0080     E  	mov ra,a
 331  00B0  2800     R  	jmp _L49
 331  00B1              _L54:
 332  00B1              #line 332 "C:\Users\my asus\Desktop\BS83B08-12-16A\BS83B12A - v1.0\20160607_LIBV413\USER_PROGRAM\USER_PROGRAM.C"
 332  00B1  0700     E  	mov a,_GLOBE_VARIES[6]
 332  00B2  0080     E  	mov ra,a
 332  00B3  2800     R  	jmp _L49
 332  00B4              _L55:
 333  00B4              #line 333 "C:\Users\my asus\Desktop\BS83B08-12-16A\BS83B12A - v1.0\20160607_LIBV413\USER_PROGRAM\USER_PROGRAM.C"
 333  00B4  0700     E  	mov a,_GLOBE_VARIES[7]
 333  00B5  0080     E  	mov ra,a
 333  00B6  2800     R  	jmp _L49
 333  00B7              _L56:
 334  00B7              #line 334 "C:\Users\my asus\Desktop\BS83B08-12-16A\BS83B12A - v1.0\20160607_LIBV413\USER_PROGRAM\USER_PROGRAM.C"
 334  00B7  0700     E  	mov a,_GLOBE_VARIES[8]
 334  00B8  0080     E  	mov ra,a
 334  00B9  2800     R  	jmp _L49
 334  00BA              _L57:
 335  00BA              #line 335 "C:\Users\my asus\Desktop\BS83B08-12-16A\BS83B12A - v1.0\20160607_LIBV413\USER_PROGRAM\USER_PROGRAM.C"
 335  00BA  0700     E  	mov a,_GLOBE_VARIES[9]
 335  00BB  0080     E  	mov ra,a
 335  00BC  2800     R  	jmp _L49
 335  00BD              _L58:
 336  00BD              #line 336 "C:\Users\my asus\Desktop\BS83B08-12-16A\BS83B12A - v1.0\20160607_LIBV413\USER_PROGRAM\USER_PROGRAM.C"
 336  00BD  0700     E  	mov a,_GLOBE_VARIES[10]
 336  00BE  0080     E  	mov ra,a
 336  00BF  2800     R  	jmp _L49
 336  00C0              _L59:
 341  00C0              #line 341 "C:\Users\my asus\Desktop\BS83B08-12-16A\BS83B12A - v1.0\20160607_LIBV413\USER_PROGRAM\USER_PROGRAM.C"
 341  00C0  0700     E  	mov a,_GLOBE_VARIES[11]
 341  00C1  0080     E  	mov ra,a
 341  00C2  2800     R  	jmp _L49
 341  00C3              _L60:
 342  00C3              #line 342 "C:\Users\my asus\Desktop\BS83B08-12-16A\BS83B12A - v1.0\20160607_LIBV413\USER_PROGRAM\USER_PROGRAM.C"
 342  00C3  0700     E  	mov a,_GLOBE_VARIES[12]
 342  00C4  0080     E  	mov ra,a
 342  00C5  2800     R  	jmp _L49
 342  00C6              _L61:
 343  00C6              #line 343 "C:\Users\my asus\Desktop\BS83B08-12-16A\BS83B12A - v1.0\20160607_LIBV413\USER_PROGRAM\USER_PROGRAM.C"
 343  00C6  0700     E  	mov a,_GLOBE_VARIES[13]
 343  00C7  0080     E  	mov ra,a
 343  00C8  2800     R  	jmp _L49
 343  00C9              _L62:
文件：USER_PROGRAM.C 编译器版本 HGASM 0202 页次12

 344  00C9              #line 344 "C:\Users\my asus\Desktop\BS83B08-12-16A\BS83B12A - v1.0\20160607_LIBV413\USER_PROGRAM\USER_PROGRAM.C"
 344  00C9  0700     E  	mov a,_GLOBE_VARIES[14]
 344  00CA  0080     E  	mov ra,a
 344  00CB  2800     R  	jmp _L49
 344  00CC              _L63:
 354  00CC              #line 354 "C:\Users\my asus\Desktop\BS83B08-12-16A\BS83B12A - v1.0\20160607_LIBV413\USER_PROGRAM\USER_PROGRAM.C"
 354  00CC  0700     E  	mov a,_KEY_IO_SEL[1]
 354  00CD  0080     E  	mov ra,a
 354  00CE  2800     R  	jmp _L49
 354  00CF              _L64:
 356  00CF              #line 356 "C:\Users\my asus\Desktop\BS83B08-12-16A\BS83B12A - v1.0\20160607_LIBV413\USER_PROGRAM\USER_PROGRAM.C"
 356  00CF  0700     E  	mov a,_KEY_DATA[1]
 356  00D0  0080     E  	mov ra,a
 356  00D1  2800     R  	jmp _L49
 356  00D2              _L80:
 363  00D2              #line 363 "C:\Users\my asus\Desktop\BS83B08-12-16A\BS83B12A - v1.0\20160607_LIBV413\USER_PROGRAM\USER_PROGRAM.C"
 363  00D2  0FAA        	mov a,170
 363  00D3  0080     E  	mov ra,a
 363  00D4              _L49:
 366  00D4              #line 366 "C:\Users\my asus\Desktop\BS83B08-12-16A\BS83B12A - v1.0\20160607_LIBV413\USER_PROGRAM\USER_PROGRAM.C"
 366  00D4  0700     E  	mov a,ra
 366  00D5  00A6        	mov [38],a
 368  00D6              #line 368 "C:\Users\my asus\Desktop\BS83B08-12-16A\BS83B12A - v1.0\20160607_LIBV413\USER_PROGRAM\USER_PROGRAM.C"
 368  00D6  0700     E  	mov a,ra
 368  00D7  0380     R  	addm a,_I2C[5]
 368  00D8              _L85:
 370  00D8              #line 370 "C:\Users\my asus\Desktop\BS83B08-12-16A\BS83B12A - v1.0\20160607_LIBV413\USER_PROGRAM\USER_PROGRAM.C"
 370  00D8  1480     R  	inc _I2C[2]
 371  00D9              #line 371 "C:\Users\my asus\Desktop\BS83B08-12-16A\BS83B12A - v1.0\20160607_LIBV413\USER_PROGRAM\USER_PROGRAM.C"
 371  00D9  0700     R  	mov a,_I2C[2]
 371  00DA  0200     R  	sub a,_I2C[1]
 371  00DB  380A        	snz c
 371  00DC  2800     R  	jmp _L33
 372  00DD              #line 372 "C:\Users\my asus\Desktop\BS83B08-12-16A\BS83B12A - v1.0\20160607_LIBV413\USER_PROGRAM\USER_PROGRAM.C"
 372  00DD  1F80     R  	set _I2C[2]
 372  00DE  2800     R  	jmp _L33
 372  00DF              _L47:
 378  00DF              #line 378 "C:\Users\my asus\Desktop\BS83B08-12-16A\BS83B12A - v1.0\20160607_LIBV413\USER_PROGRAM\USER_PROGRAM.C"
 378  00DF  0726        	mov a,[38]
 378  00E0  0080     E  	mov ra,a
 379  00E1              #line 379 "C:\Users\my asus\Desktop\BS83B08-12-16A\BS83B12A - v1.0\20160607_LIBV413\USER_PROGRAM\USER_PROGRAM.C"
 379  00E1  35A5        	clr [37].3
 381  00E2              #line 381 "C:\Users\my asus\Desktop\BS83B08-12-16A\BS83B12A - v1.0\20160607_LIBV413\USER_PROGRAM\USER_PROGRAM.C"
 381  00E2  1080     R  	sz _I2C[3]
 381  00E3  2800     R  	jmp _L68
 385  00E4              #line 385 "C:\Users\my asus\Desktop\BS83B08-12-16A\BS83B12A - v1.0\20160607_LIBV413\USER_PROGRAM\USER_PROGRAM.C"
 385  00E4  0700     E  	mov a,ra
 385  00E5  0EF0        	and a,240
 385  00E6  0080     R  	mov _I2C[0],a
 387  00E7              #line 387 "C:\Users\my asus\Desktop\BS83B08-12-16A\BS83B12A - v1.0\20160607_LIBV413\USER_PROGRAM\USER_PROGRAM.C"
 387  00E7  0700     R  	mov a,_I2C[0]
 387  00E8  0080     R  	mov _IIC_ISR_2[0],a
 387  00E9  0700     R  	mov a,_IIC_ISR_2[0]
 387  00EA  0AB0        	sub a,176
 387  00EB  3D0A        	sz z
 387  00EC  2800     R  	jmp _L70
 387  00ED  0A10        	sub a,(192)-(176)
 387  00EE  3D0A        	sz z
 387  00EF  2800     R  	jmp _L71
 387  00F0  0700     R  	mov a,_IIC_ISR_2[0]
文件：USER_PROGRAM.C 编译器版本 HGASM 0202 页次13

 387  00F1  0AD0        	sub a,208
 387  00F2  3D0A        	sz z
 387  00F3  2800     R  	jmp _L72
 387  00F4  0A10        	sub a,(224)-(208)
 387  00F5  3D0A        	sz z
 387  00F6  2800     R  	jmp _L73
 387  00F7  0700     R  	mov a,_IIC_ISR_2[0]
 387  00F8  0AF0        	sub a,240
 387  00F9  390A        	snz z
 387  00FA  2800     R  	jmp _L81
 394  00FB              #line 394 "C:\Users\my asus\Desktop\BS83B08-12-16A\BS83B12A - v1.0\20160607_LIBV413\USER_PROGRAM\USER_PROGRAM.C"
 394  00FB  0F02        	mov a,2
 394  00FC  0080     R  	mov _I2C[1],a
 394  00FD  0FF0        	mov a,240
 394  00FE  0080     R  	mov _I2C[2],a
 394  00FF  2800     R  	jmp _L75
 394  0100              _L70:
 390  0100              #line 390 "C:\Users\my asus\Desktop\BS83B08-12-16A\BS83B12A - v1.0\20160607_LIBV413\USER_PROGRAM\USER_PROGRAM.C"
 390  0100  0F0C        	mov a,12
 390  0101  0080     R  	mov _I2C[1],a
 390  0102  0FB0        	mov a,176
 390  0103  0080     R  	mov _I2C[2],a
 390  0104  2800     R  	jmp _L75
 390  0105              _L71:
 391  0105              #line 391 "C:\Users\my asus\Desktop\BS83B08-12-16A\BS83B12A - v1.0\20160607_LIBV413\USER_PROGRAM\USER_PROGRAM.C"
 391  0105  0F02        	mov a,2
 391  0106  0080     R  	mov _I2C[1],a
 391  0107  0FC0        	mov a,192
 391  0108  0080     R  	mov _I2C[2],a
 391  0109  2800     R  	jmp _L75
 391  010A              _L72:
 392  010A              #line 392 "C:\Users\my asus\Desktop\BS83B08-12-16A\BS83B12A - v1.0\20160607_LIBV413\USER_PROGRAM\USER_PROGRAM.C"
 392  010A  0F01        	mov a,1
 392  010B  0080     R  	mov _I2C[1],a
 392  010C  0FD0        	mov a,208
 392  010D  0080     R  	mov _I2C[2],a
 392  010E  2800     R  	jmp _L75
 392  010F              _L73:
 393  010F              #line 393 "C:\Users\my asus\Desktop\BS83B08-12-16A\BS83B12A - v1.0\20160607_LIBV413\USER_PROGRAM\USER_PROGRAM.C"
 393  010F  0F02        	mov a,2
 393  0110  0080     R  	mov _I2C[1],a
 393  0111  0FE0        	mov a,224
 393  0112  0080     R  	mov _I2C[2],a
 393  0113  2800     R  	jmp _L75
 393  0114              _L81:
 395  0114              #line 395 "C:\Users\my asus\Desktop\BS83B08-12-16A\BS83B12A - v1.0\20160607_LIBV413\USER_PROGRAM\USER_PROGRAM.C"
 395  0114  0F03        	mov a,3
 395  0115  0080     R  	mov _I2C[1],a
 395  0116  0FA0        	mov a,160
 395  0117  0080     R  	mov _I2C[2],a
 395  0118              _L75:
 397  0118              #line 397 "C:\Users\my asus\Desktop\BS83B08-12-16A\BS83B12A - v1.0\20160607_LIBV413\USER_PROGRAM\USER_PROGRAM.C"
 397  0118  1F00     R  	clr _I2C[5]
 397  0119  2800     R  	jmp _L82
 397  011A              _L68:
 401  011A              #line 401 "C:\Users\my asus\Desktop\BS83B08-12-16A\BS83B12A - v1.0\20160607_LIBV413\USER_PROGRAM\USER_PROGRAM.C"
 401  011A  0700     R  	mov a,_I2C[1]
 401  011B  0200     R  	sub a,_I2C[3]
 401  011C  380A        	snz c
 401  011D  2800     R  	jmp _L76
文件：USER_PROGRAM.C 编译器版本 HGASM 0202 页次14

 403  011E              #line 403 "C:\Users\my asus\Desktop\BS83B08-12-16A\BS83B12A - v1.0\20160607_LIBV413\USER_PROGRAM\USER_PROGRAM.C"
 403  011E  0F00     R  	mov a,low (offset _I2C_Data-1)
 403  011F  0300     R  	add a,_I2C[3]
 403  0120  0083        	mov mp,a
 403  0121  0F00     R  	mov a,high (offset _I2C_Data-1)
 403  0122  1F01        	clr sbp
 403  0123  1381        	adcm a,sbp
 403  0124  0701        	mov a,sbp
 403  0125  0084        	mov bp,a
 403  0126  0700     E  	mov a,ra
 403  0127  0082        	mov ir,a
 404  0128              #line 404 "C:\Users\my asus\Desktop\BS83B08-12-16A\BS83B12A - v1.0\20160607_LIBV413\USER_PROGRAM\USER_PROGRAM.C"
 404  0128  0700     E  	mov a,ra
 404  0129  0380     R  	addm a,_I2C[5]
 404  012A  2800     R  	jmp _L82
 404  012B              _L76:
 409  012B              #line 409 "C:\Users\my asus\Desktop\BS83B08-12-16A\BS83B12A - v1.0\20160607_LIBV413\USER_PROGRAM\USER_PROGRAM.C"
 409  012B  0700     E  	mov a,ra
 409  012C  0080     R  	mov _I2C[4],a
 410  012D              #line 410 "C:\Users\my asus\Desktop\BS83B08-12-16A\BS83B12A - v1.0\20160607_LIBV413\USER_PROGRAM\USER_PROGRAM.C"
 410  012D  3000     R  	set _FLAG[0].1
 410  012E              _L82:
 411  012E              #line 411 "C:\Users\my asus\Desktop\BS83B08-12-16A\BS83B12A - v1.0\20160607_LIBV413\USER_PROGRAM\USER_PROGRAM.C"
 411  012E  1480     R  	inc _I2C[3]
 411  012F              _L33:
 411  012F  0700     E  	mov a,r2
 411  0130  0084        	mov bp,a
 411  0131  0700     E  	mov a,r3
 411  0132  008A        	mov status,a
 411  0133  0700     E  	mov a,r4
 411  0134  0083        	mov mp,a
 411  0135  0700     E  	mov a,r5
 411  0136  0081        	mov sbp,a
 411  0137  0700     E  	mov a,r1
 411  0138  0004        	reti
 411  0139              _IIC_ISR endp
 411  0139              
 411  0139              #line 411 "C:\Users\my asus\Desktop\BS83B08-12-16A\BS83B12A - v1.0\20160607_LIBV413\USER_PROGRAM\USER_PROGRAM.C"
 411  0139              #pragma debug scope 1 1
  82  0139              #line 82 "C:\Users\my asus\Desktop\BS83B08-12-16A\BS83B12A - v1.0\20160607_LIBV413\USER_PROGRAM\USER_PROGRAM.C"
  82  0139              public _I2C_STATE
  82  0000              @HCCINIT0 .section 'data'
  82  0000              _I2C_STATE	db 0
  82  0001              #pragma debug variable 8 1 _I2C_STATE "I2C_STATE"
  82  0001              
  82  0000              @HCCINIT .section 'data'
  81  0000              #line 81 "C:\Users\my asus\Desktop\BS83B08-12-16A\BS83B12A - v1.0\20160607_LIBV413\USER_PROGRAM\USER_PROGRAM.C"
  81  0000              public _MCU_STATE
  81  0001              @HCCINIT0 .section 'data'
  81  0001              _MCU_STATE	db 0
  81  0002              #pragma debug variable 8 1 _MCU_STATE "MCU_STATE"
  81  0002              
  81  0000              @HCCINIT .section 'data'
  80  0000              #line 80 "C:\Users\my asus\Desktop\BS83B08-12-16A\BS83B12A - v1.0\20160607_LIBV413\USER_PROGRAM\USER_PROGRAM.C"
  80  0000              public _I2C_Data
  80  0002              @HCCINIT0 .section 'data'
  80  0002  000C[       _I2C_Data	db 12 dup(0)
            00
            ]
  80  000E              #pragma debug array 42 8 12 1
文件：USER_PROGRAM.C 编译器版本 HGASM 0202 页次15

  80  000E              #pragma debug array 42 8 12 1
  80  000E              #pragma debug variable 42 1 _I2C_Data "I2C_Data"
  80  000E              
  80  0000              @HCCINIT .section 'data'
  78  0000              #line 78 "C:\Users\my asus\Desktop\BS83B08-12-16A\BS83B12A - v1.0\20160607_LIBV413\USER_PROGRAM\USER_PROGRAM.C"
  78  0000              public _I2C
  78  000E              @HCCINIT0 .section 'data'
  78  000E  0006[       _I2C	db 6 dup(0)
            00
            ]
  78  0014              #pragma debug struct_end
  78  0014              #pragma debug struct_end
  78  0014              #pragma debug variable 43 1 _I2C "I2C"
  78  0014              
  78  0000              @HCCINIT .section 'data'
  59  0000              #line 59 "C:\Users\my asus\Desktop\BS83B08-12-16A\BS83B12A - v1.0\20160607_LIBV413\USER_PROGRAM\USER_PROGRAM.C"
  59  0000              public _FLAG
  59  0014              @HCCINIT0 .section 'data'
  59  0014              _FLAG	db 0
  59  0015              #pragma debug struct_end
  59  0015              #pragma debug struct_end
  59  0015              #pragma debug union_end
  59  0015              #pragma debug union_end
  59  0015              #pragma debug variable 45 1 _FLAG "FLAG"
  59  0015              
  59  0000              @HCCINIT .section 'data'
  59  0000              public _IC_PAGE_HEAD
  59  0000              @crom	.section 'crom'
  57  0000              #line 57 "C:\Users\my asus\Desktop\BS83B08-12-16A\BS83B12A - v1.0\20160607_LIBV413\USER_PROGRAM\USER_PROGRAM.C"
  57  0000              @crom	.section	'crom'
  57  0000              _IC_PAGE_HEAD:
  57  0000              #pragma debug array 46 8 6 1
  57  0000              #pragma debug array 46 8 6 1
  57  0000              #pragma debug variable 46 1 _IC_PAGE_HEAD "IC_PAGE_HEAD"
  57  0000              	db -96
  57  0001              	db -80
  57  0001              	db -64
  57  0002              	db -48
  57  0002              	db -32
  57  0003              	db -16
  57  0003              public _DeviceAddress
  56  0003              #line 56 "C:\Users\my asus\Desktop\BS83B08-12-16A\BS83B12A - v1.0\20160607_LIBV413\USER_PROGRAM\USER_PROGRAM.C"
  56  0003              @crom	.section	'crom'
  56  0003              _DeviceAddress:
  56  0003              #pragma debug variable 8 1 _DeviceAddress "DeviceAddress"
  56  0003              	db 40
  56  0004              public _Version
  32  0004              #line 32 "C:\Users\my asus\Desktop\BS83B08-12-16A\BS83B12A - v1.0\20160607_LIBV413\USER_PROGRAM\USER_PROGRAM.C"
  32  0004              @crom	.section	'crom'
  32  0004              _Version:
  32  0004              #pragma debug variable 8 1 _Version "Version"
  32  0004              	db 28
  32  0004              public _IC_PAGE_SIZS
  31  0004              #line 31 "C:\Users\my asus\Desktop\BS83B08-12-16A\BS83B12A - v1.0\20160607_LIBV413\USER_PROGRAM\USER_PROGRAM.C"
  31  0004              @crom	.section	'crom'
  31  0004              _IC_PAGE_SIZS:
  31  0004              #pragma debug variable 46 1 _IC_PAGE_SIZS "IC_PAGE_SIZS"
  31  0004              	db 3
  31  0005              	db 12
  31  0005              	db 2
文件：USER_PROGRAM.C 编译器版本 HGASM 0202 页次16

  31  0006              	db 1
  31  0006              	db 2
  31  0007              	db 2
  31  0007              #pragma debug variable 8 1 ___acc "__acc" 1
  31  0007              #pragma debug struct_end
  31  0007              #pragma debug struct_end
  31  0007              #pragma debug union_end
  31  0007              #pragma debug union_end
  31  0007              #pragma debug variable 48 1 ___intc0 "__intc0" 1
  31  0007              #pragma debug struct_end
  31  0007              #pragma debug struct_end
  31  0007              #pragma debug union_end
  31  0007              #pragma debug union_end
  31  0007              #pragma debug variable 50 1 ___intc1 "__intc1" 1
  31  0007              #pragma debug struct_end
  31  0007              #pragma debug struct_end
  31  0007              #pragma debug union_end
  31  0007              #pragma debug union_end
  31  0007              #pragma debug variable 52 1 ___pa "__pa" 1
  31  0007              #pragma debug struct_end
  31  0007              #pragma debug struct_end
  31  0007              #pragma debug union_end
  31  0007              #pragma debug union_end
  31  0007              #pragma debug variable 54 1 ___pac "__pac" 1
  31  0007              #pragma debug struct_end
  31  0007              #pragma debug struct_end
  31  0007              #pragma debug union_end
  31  0007              #pragma debug union_end
  31  0007              #pragma debug variable 56 1 ___papu "__papu" 1
  31  0007              #pragma debug struct_end
  31  0007              #pragma debug struct_end
  31  0007              #pragma debug union_end
  31  0007              #pragma debug union_end
  31  0007              #pragma debug variable 58 1 ___pawu "__pawu" 1
  31  0007              #pragma debug struct_end
  31  0007              #pragma debug struct_end
  31  0007              #pragma debug union_end
  31  0007              #pragma debug union_end
  31  0007              #pragma debug variable 60 1 ___wdtc "__wdtc" 1
  31  0007              #pragma debug struct_end
  31  0007              #pragma debug struct_end
  31  0007              #pragma debug union_end
  31  0007              #pragma debug union_end
  31  0007              #pragma debug variable 62 1 ___i2ctoc "__i2ctoc" 1
  31  0007              #pragma debug struct_end
  31  0007              #pragma debug struct_end
  31  0007              #pragma debug union_end
  31  0007              #pragma debug union_end
  31  0007              #pragma debug variable 64 1 ___simc0 "__simc0" 1
  31  0007              #pragma debug struct_end
  31  0007              #pragma debug struct_end
  31  0007              #pragma debug union_end
  31  0007              #pragma debug union_end
  31  0007              #pragma debug variable 66 1 ___simc1 "__simc1" 1
  31  0007              #pragma debug variable 8 1 ___simd "__simd" 1
  31  0007              #pragma debug variable 8 1 ___sima "__sima" 1
  31  0007              
  31  0007              ; output external variables
  31  0007              extern _KEY_DATA:byte
  31  0007              extern _GLOBE_VARIES:byte
文件：USER_PROGRAM.C 编译器版本 HGASM 0202 页次17

  31  0007              extern _KEY_IO_SEL:byte
  31  0007              extern r1:byte
  31  0007              extern r2:byte
  31  0007              extern r3:byte
  31  0007              extern r4:byte
  31  0007              extern r5:byte
  31  0007              extern _GET_KEY_BITMAP:near
  31  0007              
  31  0007              ; 
  31  0007              ; Generated by holtek-gcc v3.14, Fri Jul 28 18:38:25 2017
  31  0007              ; Rebuild 10
  31  0007              ; end of file


        0 Errors, 0